MPASM 5.62     DISPOSITIVO BAR PIC12F629.ASM   10-4-2016  16:08:13         PAGE  1


LOC  OBJECT CODE     LINE SOURCE TEXT
  VALUE

                      00001 
                      00002 ; PICBASIC PRO(TM) Compiler 3.0.9.1, (c) 1998, 2016 microEngineering Labs, Inc. All Rights Reserved. 
  00000001            00003 MPASMX_USED                     EQU     1
                      00004 
                      00005 #define PBP_PATH        C:\PROGRAM FILES (X86)\PBP3\
                      00006 
                      00007 
                      00008 
                      00009 
                      00017         LIST
                      00018         LIST p = 12F629, r = dec, w = -302, c = 255
                      00019         INCLUDE "P12F629.INC"   ; MPASM  Header
                      00001         LIST
                      00002 
                      00003 ;==========================================================================
                      00004 ; Build date : Apr 06 2015
                      00005 ;  MPASM PIC12F629 processor include
                      00006 ; 
                      00007 ;  (c) Copyright 1999-2015 Microchip Technology, All rights reserved
                      00008 ;==========================================================================
                      00009 
                      00339         LIST
                      00022         LIST
                      00023 
                      00024 
                      00025 PBP_HARDWAREDEF  macro
                      00026   endm
                      00027 
                      00028 
2007   3FFC           00029     __config _INTRC_OSC_NOCLKOUT & _WDT_ON & _MCLRE_ON & _CP_OFF
                      00030 
                      00031 
                      00032 
                      00033 ; Define statements.
                      00034 ; C:\USERS\CALZONTZIN\DESKTOP\DISPOSITIVO STAR3 PIC12F629\DISPOSITIVO BAR PIC12F629.PBP 00013   DEFINE OSC 4   ' Define Oscilador Interno a 4Mhz
                      00035 #define         OSC              4   
                      00036 
  00000020            00037 RAM_START                       EQU     00020h
  0000005F            00038 RAM_END                         EQU     0005Fh
  00000001            00039 RAM_BANKS                       EQU     00001h
  00000020            00040 BANK0_START                     EQU     00020h
  0000005F            00041 BANK0_END                       EQU     0005Fh
  00002100            00042 EEPROM_START                    EQU     02100h
  0000217F            00043 EEPROM_END                      EQU     0217Fh
                      00044 
                      00045 ; C:\PROGRAM FILES (X86)\PBP3\PBPPIC14.RAM      00012   A00020  R0      VAR     WORD BANK0 SYSTEM       ' System Register
  00000020            00046 R0                              EQU     RAM_START + 000h
                      00047 ; C:\PROGRAM FILES (X86)\PBP3\PBPPIC14.RAM      00013   A00022  R1      VAR     WORD BANK0 SYSTEM       ' System Register
  00000022            00048 R1                              EQU     RAM_START + 002h
                      00049 ; C:\PROGRAM FILES (X86)\PBP3\PBPPIC14.RAM      00014   A00024  R2      VAR     WORD BANK0 SYSTEM       ' System Register
  00000024            00050 R2                              EQU     RAM_START + 004h
                      00051 ; C:\PROGRAM FILES (X86)\PBP3\PBPPIC14.RAM      00015   A00026  R3      VAR     WORD BANK0 SYSTEM       ' System Register
  00000026            00052 R3                              EQU     RAM_START + 006h
MPASM 5.62     DISPOSITIVO BAR PIC12F629.ASM   10-4-2016  16:08:13         PAGE  2


LOC  OBJECT CODE     LINE SOURCE TEXT
  VALUE

                      00053 ; C:\PROGRAM FILES (X86)\PBP3\PBPPIC14.RAM      00016   A00028  R4      VAR     WORD BANK0 SYSTEM       ' System Register
  00000028            00054 R4                              EQU     RAM_START + 008h
                      00055 ; C:\PROGRAM FILES (X86)\PBP3\PBPPIC14.RAM      00017   A0002A  R5      VAR     WORD BANK0 SYSTEM       ' System Register
  0000002A            00056 R5                              EQU     RAM_START + 00Ah
                      00057 ; C:\PROGRAM FILES (X86)\PBP3\PBPPIC14.RAM      00018   A0002C  R6      VAR     WORD BANK0 SYSTEM       ' System Register
  0000002C            00058 R6                              EQU     RAM_START + 00Ch
                      00059 ; C:\PROGRAM FILES (X86)\PBP3\PBPPIC14.RAM      00019   A0002E  R7      VAR     WORD BANK0 SYSTEM       ' System Register
  0000002E            00060 R7                              EQU     RAM_START + 00Eh
                      00061 ; C:\PROGRAM FILES (X86)\PBP3\PBPPIC14.RAM      00020   A00030  R8      VAR     WORD BANK0 SYSTEM       ' System Register
  00000030            00062 R8                              EQU     RAM_START + 010h
                      00063 ; C:\PROGRAM FILES (X86)\PBP3\PBPPIC14.RAM      00026   A00032  FLAGS   VAR     BYTE BANK0 SYSTEM       ' Static flags
  00000032            00064 FLAGS                           EQU     RAM_START + 012h
                      00065 ; C:\PROGRAM FILES (X86)\PBP3\PBPPIC14.RAM      00025   A00033  GOP     VAR     BYTE BANK0 SYSTEM       ' Gen Op Parameter
  00000033            00066 GOP                             EQU     RAM_START + 013h
                      00067 ; C:\PROGRAM FILES (X86)\PBP3\PBPPIC14.RAM      00022   A00034  RM1     VAR     BYTE BANK0 SYSTEM       ' Pin 1 Mask
  00000034            00068 RM1                             EQU     RAM_START + 014h
                      00069 ; C:\PROGRAM FILES (X86)\PBP3\PBPPIC14.RAM      00024   A00035  RM2     VAR     BYTE BANK0 SYSTEM       ' Pin 2 Mask
  00000035            00070 RM2                             EQU     RAM_START + 015h
                      00071 ; C:\PROGRAM FILES (X86)\PBP3\PBPPIC14.RAM      00021   A00036  RR1     VAR     BYTE BANK0 SYSTEM       ' Pin 1 Register
  00000036            00072 RR1                             EQU     RAM_START + 016h
                      00073 ; C:\PROGRAM FILES (X86)\PBP3\PBPPIC14.RAM      00023   A00037  RR2     VAR     BYTE BANK0 SYSTEM       ' Pin 2 Register
  00000037            00074 RR2                             EQU     RAM_START + 017h
                      00075 ; C:\USERS\CALZONTZIN\DESKTOP\DISPOSITIVO STAR3 PIC12F629\DISPOSITIVO BAR PIC12F629.PBP 00022   A00038   i var byte
  00000038            00076 _i                              EQU     RAM_START + 018h
                      00077 ; C:\USERS\CALZONTZIN\DESKTOP\DISPOSITIVO STAR3 PIC12F629\DISPOSITIVO BAR PIC12F629.PBP 00021   A00039   mem var byte
  00000039            00078 _mem                            EQU     RAM_START + 019h
                      00079 ; C:\PROGRAM FILES (X86)\PBP3\DEVICES\PIC12F629.PBPINC  00116   PORTL   VAR     GPIO
  00000005            00080 _PORTL                          EQU      GPIO
                      00081 ; C:\PROGRAM FILES (X86)\PBP3\DEVICES\PIC12F629.PBPINC  00117   PORTH   VAR     GPIO
  00000005            00082 _PORTH                          EQU      GPIO
                      00083 ; C:\PROGRAM FILES (X86)\PBP3\DEVICES\PIC12F629.PBPINC  00118   TRISL   VAR     TRISIO
  00000085            00084 _TRISL                          EQU      TRISIO
                      00085 ; C:\PROGRAM FILES (X86)\PBP3\DEVICES\PIC12F629.PBPINC  00119   TRISH   VAR     TRISIO
  00000085            00086 _TRISH                          EQU      TRISIO
                      00087 #define _startled               _GPIO??0
                      00088 #define _barled                 _GPIO??2
                      00089 #define _startbtn               _GPIO??5
                      00090 #define _barbtn                 _GPIO??4
                      00091 #define _GPIO??0                 GPIO, 000h
                      00092 #define _GPIO??2                 GPIO, 002h
                      00093 #define _GPIO??5                 GPIO, 005h
                      00094 #define _GPIO??4                 GPIO, 004h
                      00095         INCLUDE "DISPOSITIVO BAR PIC12F629.MAC"
                      00001 
                      00131         LIST
                      00096         INCLUDE "C:\PROGRAM FILES (X86)\PBP3\PBPPIC14.LIB"
                      00001 ;******************************************************************
                      00002 ;*  PBPPIC14.LIB                                                  *
                      00003 ;*                                                                *
                      00004 ;*  By        : Leonard Zerman, Jeff Schmoyer,                    *
                      00005 ;*              Darrel Taylor, Charles Leo                        *
                      00006 ;*  Notice    : Copyright (c) 2011 microEngineering Labs, Inc.    *
                      00007 ;*              All Rights Reserved                               *
MPASM 5.62     DISPOSITIVO BAR PIC12F629.ASM   10-4-2016  16:08:13         PAGE  3


LOC  OBJECT CODE     LINE SOURCE TEXT
  VALUE

                      00008 ;*  Date      : 07/15/2011                                        *
                      00009 ;*  Version   : 3.0.0                                             *
                      00010 ;*  Notes     :                                                   *
                      00011 ;******************************************************************
                      00055   LIST
                      00056 ; Oscillator is 4MHz
                      01135   LIST
0000                  01136     ORG RESET_ORG               ; Reset vector usually at 0
                      01151   LIST
0000   283C           01152         goto    INIT            ; Finish initialization
                      06129   LIST
0001                  06130 READ
                      06131       if ((EEADR & 180h) == 000h)       ; For 16F8x
                      06132         bsf     STATUS, RP0     ; EECON1 in bank 1
                      06133         bsf     EECON1, RD      ; Read the EEPROM
                      06134         bcf     STATUS, RP0     ; EEDATA in bank 0
                      06135         movf    EEDATA, W       ; Get the data
                      06136 READINC incf    EEADR, F        ; Bump up address
                      06137         goto    DONE            ; Done
                      06138       endif
                      06139 
                      06140       if ((EEADR & 180h) == 080h)       ; For 16F62x, 12F62x, 12F67x
0001   1683           06141         bsf     STATUS, RP0     ; For EE in bank 1
0002   141C           06142         bsf     EECON1, RD      ; Read the EEPROM
0003   081A           06143         movf    EEDATA, W       ; Get the data
0004   1683           06144 READINC bsf     STATUS, RP0     ; EEADR in bank 1
0005   0A9B           06145         incf    EEADR, F        ; Bump up address
0006   2837           06146         goto    DONE            ; Done
                      06147       endif
                      06148 
                      06149       if ((EEADR & 180h) == 100h)       ; For 16F87x
                      06150         bsf     STATUS, RP1     ; For EE in bank 2 & 3
                      06151         bsf     STATUS, RP0     ; EECON1 in bank 3
                      06152         clrf    EECON1          ; Read from data memory
                      06153         bsf     EECON1, RD      ; Read the EEPROM
                      06154         bcf     STATUS, RP0     ; EEDATA in bank 2
                      06155         movf    EEDATA, W       ; Get the data
                      06156 READINC bsf     STATUS, RP1     ; EEADR in bank 2
                      06157         incf    EEADR, F        ; Bump up address
                      06158         goto    DONE            ; Done
                      06159       endif
                      06202   LIST
0007   0103           06203 WRITEZ  clrw                    ; Data is 0
0008                  06204 WRITE
                      06205       if ((EEADR & 180h) == 000h)       ; For 16F8x
                      06206         movwf   EEDATA          ; Set the EEPROM data
                      06207         bsf     STATUS, RP0     ; EECON1, 2 in bank 1
                      06208       endif
                      06209 
                      06210       if ((EEADR & 180h) == 080h)       ; For 16F62x, 12F62x, 12F67x
0008   1683           06211         bsf     STATUS, RP0     ; For EE in bank 1
0009   009A           06212         movwf   EEDATA          ; Set the EEPROM data
                      06213       endif
MPASM 5.62     DISPOSITIVO BAR PIC12F629.ASM   10-4-2016  16:08:13         PAGE  4


LOC  OBJECT CODE     LINE SOURCE TEXT
  VALUE

                      06214 
                      06215       if ((EEADR & 180h) == 100h)       ; For 16F87x
                      06216         bsf     STATUS, RP1     ; For EE in bank 2 & 3
                      06217         movwf   EEDATA          ; Set the EEPROM data
                      06218         bsf     STATUS, RP0     ; EECON1, 2 in bank 3
                      06219         clrf    EECON1          ; Write to data memory
                      06220       endif
                      06221 
000A   151C           06222         bsf     EECON1, WREN
                      06223       ifdef WRITE_INT
                      06224         bcf     INTCON, GIE     ; Disable global interrupts
                      06225         btfsc   INTCON, GIE     ; See AN576
                      06226         goto    $ - 2
                      06227       endif      
000B   3055           06228         movlw   55h             ; Unlock the door
000C   009D           06229         movwf   EECON2
000D   30AA           06230         movlw   0AAh
000E   009D           06231         movwf   EECON2
000F   149C           06232         bsf     EECON1, WR      ; Do the write
                      06233       ifdef WRITE_INT
                      06234         bsf     INTCON, GIE     ; Enable global interrupts
                      06235       endif      
0010   189C           06236 writeloop btfsc EECON1, WR      ; Wait for the write to complete
0011   2810           06237         goto    writeloop
0012   111C           06238         bcf     EECON1, WREN    ; Lock up when we're done
                      06239 
                      06240       if ((EEADR & 180h) == 000h)       ; For 16F8x
                      06241         bcf     STATUS, RP0     ; EEADR in bank 0
                      06242       endif
                      06243 
                      06244       if ((EEADR & 180h) == 100h)       ; For 16F87x
                      06245         bcf     STATUS, RP0     ; EEADR in bank 2
                      06246       endif
                      06247 
0013   0A9B           06248         incf    EEADR, F        ; Bump up address
0014   2837           06249         goto    DONE            ; Done
                      06338   LIST
0015   01A3           06339 PAUSE   clrf    R1 + 1
0016   00A2           06340 PAUSEL  movwf   R1
0017   30FF           06341 pauseloop movlw -1              ; 1 (9)
0018   07A2           06342         addwf   R1, F           ; 1
0019   1C03           06343         btfss   STATUS, C       ; 1 / 2
001A   07A3           06344         addwf   R1 + 1, F       ; 1 / 0
001B   1C03           06345         btfss   STATUS, C       ; 2
001C   2837           06346         goto    DONE
001D   3003           06347         movlw   (PAUSE_DELAY) >> 8      ; 1
001E   00A1           06348         movwf   R0 + 1          ; 1
001F   30DF           06349         movlw   low (PAUSE_DELAY)       ; 1
0020   2023           06350         call    PAUSEUSL        ; -2 (PAUSEUSL gives you 2 less than you ask for)
0021   2817           06351         goto    pauseloop       ; 2
                      06395   LIST
0022   01A1           06396 PAUSEUS clrf    R0 + 1          ; 1
0023   3EE8           06397 PAUSEUSL addlw  -24             ; 1 Subtract overhead
MPASM 5.62     DISPOSITIVO BAR PIC12F629.ASM   10-4-2016  16:08:13         PAGE  5


LOC  OBJECT CODE     LINE SOURCE TEXT
  VALUE

0024   00A0           06398         movwf   R0              ; 1
0025   09A1           06399         comf    R0 + 1, F       ; 1
0026   30FC           06400         movlw   -4              ; 1
0027   1C03           06401         btfss   STATUS, C       ; 1 / 2
0028   282C           06402         goto    pauseush        ; 2 / 0
0029   07A0           06403 pauseusloop addwf R0, F         ; 1
002A   1803           06404         btfsc   STATUS, C       ; 1 / 2
002B   2829           06405         goto    pauseusloop     ; 2 / 0
002C   07A0           06406 pauseush addwf  R0, F           ; 1 Do an extra countdown
                      06407         CLRWDT?NOP              ; 1 Keep Watchdog clear
                          M     ifndef NO_CLRWDT
002D   0064               M         clrwdt
                          M     else
                          M         nop
                          M     endif
002E   0FA1           06408         incfsz  R0 + 1, F       ; 1 / 2
002F   2829           06409         goto    pauseusloop     ; 2 / 0
0030   1820           06410         btfsc   R0, 0           ; 1 / 2
0031   2832           06411         goto    $ + 1           ; 2 / 0 Burn an extra cycle
0032   1CA0           06412         btfss   R0, 1           ; 1 / 2
0033   2836           06413         goto    pauseusdone     ; 2 / 0
0034   0000           06414         nop                     ; 1
0035   2836           06415         goto    $ + 1           ; 2 Burn an extra 2 cycles
0036   0008           06416 pauseusdone return              ; 2 + 3 (call + setup)
                      07775   LIST
0037   1383           07776 DONE    bcf     STATUS, IRP     ; 1 Set FSR to bank 0/1
0038   1303           07777         bcf     STATUS, RP1     ; 1 Show direct bank 0
0039   1283           07778         bcf     STATUS, RP0     ; 1
                      07779         CLRWDT?NOP              ; 1 Hit Watchdog timer
                          M     ifndef NO_CLRWDT
003A   0064               M         clrwdt
                          M     else
                          M         nop
                          M     endif
003B   0008           07780 DONERET return                  ; 2 Done
                      07806   LIST
003C                  07807 INIT
                      07845   LIST
003C                  07846 main
                      00097 
                      00098 
                      00099 ; C:\PROGRAM FILES (X86)\PBP3\DEVICES\PIC12F629.PBPINC  00036   #HEADER
                      00100 ; C:\PROGRAM FILES (X86)\PBP3\DEVICES\PIC12F629.PBPINC  00060   #CONFIG
                      00101 ; C:\PROGRAM FILES (X86)\PBP3\DEVICES\PIC12F629.PBPINC  00109   BANK0   $0020, $005F
                      00102 ; C:\PROGRAM FILES (X86)\PBP3\DEVICES\PIC12F629.PBPINC  00111   EEPROM  $2100, $217F
                      00103 ; C:\PROGRAM FILES (X86)\PBP3\DEVICES\PIC12F629.PBPINC  00113       #ERROR "-n option (PBPL) is not supported for this device."
                      00104 ; C:\PROGRAM FILES (X86)\PBP3\DEVICES\PIC12F629.PBPINC  00114   #ENDIF
                      00105 ; C:\PROGRAM FILES (X86)\PBP3\DEVICES\PIC12F629.PBPINC  00115   LIBRARY "PBPPIC14"
                      00106 
                      00107 ; C:\PROGRAM FILES (X86)\PBP3\DEVICES\PIC12F629.PBPINC  00120   include "PBPPIC14.RAM"
                      00108 ; C:\PROGRAM FILES (X86)\PBP3\DEVICES\PIC12F629.PBPINC  00124   #HEADER
                      00109 
                      00110 ; C:\USERS\CALZONTZIN\DESKTOP\DISPOSITIVO STAR3 PIC12F629\DISPOSITIVO BAR PIC12F629.PBP 00011   @ DEVICE 
MPASM 5.62     DISPOSITIVO BAR PIC12F629.ASM   10-4-2016  16:08:13         PAGE  6


LOC  OBJECT CODE     LINE SOURCE TEXT
  VALUE

                      00111 
                      00112         ASM?
                          M         RST?RP
                          M     if ((PREV_BANK & 1) != 0)
                          M         bcf     STATUS, RP0
                          M     endif
                          M     if ((PREV_BANK & 2) != 0)
                          M         bcf     STATUS, RP1
                          M     endif
  00000000                M PREV_BANK = 0
Warning[207]: Found label after column 1. (DEVICE)
003C                  00113  DEVICE 
                      00114 
                      00115         ENDASM?
                      00116 
                      00117 
                      00118 ; C:\USERS\CALZONTZIN\DESKTOP\DISPOSITIVO STAR3 PIC12F629\DISPOSITIVO BAR PIC12F629.PBP 00012   CMCON = 7  'estable todos pines del pic como I/O
                      00119         MOVE?CB 007h, CMCON
                          M         CHK?RP  CMCON
                          M     if (((CMCON) & 180h) == 0)
                          M       if (PREV_BANK == 1)
                          M         bcf     STATUS, RP0
                          M       endif
                          M       if (PREV_BANK == 2)
                          M         bcf     STATUS, RP1
                          M       endif
                          M       if (PREV_BANK == 3)
                          M         bcf     STATUS, RP0
                          M         bcf     STATUS, RP1
                          M       endif
  00000000                M PREV_BANK = 0
                          M     endif
                          M 
                          M     if (((CMCON) & 180h) == 80h)
                          M       if (PREV_BANK == 0)
                          M         bsf     STATUS, RP0
                          M       endif
                          M       if (PREV_BANK == 2)
                          M         bsf     STATUS, RP0
                          M         bcf     STATUS, RP1
                          M       endif
                          M       if (PREV_BANK == 3)
                          M         bcf     STATUS, RP1
                          M       endif
                          M PREV_BANK = 1
                          M     endif
                          M 
                          M     if (((CMCON) & 180h) == 100h)
                          M       if (PREV_BANK == 0)
                          M         bsf     STATUS, RP1
                          M       endif
                          M       if (PREV_BANK == 1)
                          M         bcf     STATUS, RP0
MPASM 5.62     DISPOSITIVO BAR PIC12F629.ASM   10-4-2016  16:08:13         PAGE  7


LOC  OBJECT CODE     LINE SOURCE TEXT
  VALUE

                          M         bsf     STATUS, RP1
                          M       endif
                          M       if (PREV_BANK == 3)
                          M         bcf     STATUS, RP0
                          M       endif
                          M PREV_BANK = 2
                          M     endif
                          M 
                          M     if (((CMCON) & 180h) == 180h)
                          M       if (PREV_BANK == 0)
                          M         bsf     STATUS, RP0
                          M         bsf     STATUS, RP1
                          M       endif
                          M       if (PREV_BANK == 1)
                          M         bsf     STATUS, RP1
                          M       endif
                          M       if (PREV_BANK == 2)
                          M         bsf     STATUS, RP0
                          M       endif
                          M PREV_BANK = 3
                          M     endif
                          M     if (low (007h) == 0)
                          M         clrf    CMCON
                          M     else
003C   3007               M         movlw   low (007h)
003D   0099               M         movwf   CMCON
                          M     endif
                      00120 ; C:\USERS\CALZONTZIN\DESKTOP\DISPOSITIVO STAR3 PIC12F629\DISPOSITIVO BAR PIC12F629.PBP 00013   DEFINE OSC 4   ' Define Oscilador Interno a 4Mhz
                      00121 
                      00122 ; C:\USERS\CALZONTZIN\DESKTOP\DISPOSITIVO STAR3 PIC12F629\DISPOSITIVO BAR PIC12F629.PBP 00015    trisio=%00110000
                      00123         MOVE?CB 030h, TRISIO
                          M         CHK?RP  TRISIO
                          M     if (((TRISIO) & 180h) == 0)
                          M       if (PREV_BANK == 1)
                          M         bcf     STATUS, RP0
                          M       endif
                          M       if (PREV_BANK == 2)
                          M         bcf     STATUS, RP1
                          M       endif
                          M       if (PREV_BANK == 3)
                          M         bcf     STATUS, RP0
                          M         bcf     STATUS, RP1
                          M       endif
                          M PREV_BANK = 0
                          M     endif
                          M 
                          M     if (((TRISIO) & 180h) == 80h)
                          M       if (PREV_BANK == 0)
003E   1683               M         bsf     STATUS, RP0
                          M       endif
                          M       if (PREV_BANK == 2)
                          M         bsf     STATUS, RP0
                          M         bcf     STATUS, RP1
MPASM 5.62     DISPOSITIVO BAR PIC12F629.ASM   10-4-2016  16:08:13         PAGE  8


LOC  OBJECT CODE     LINE SOURCE TEXT
  VALUE

                          M       endif
                          M       if (PREV_BANK == 3)
                          M         bcf     STATUS, RP1
                          M       endif
  00000001                M PREV_BANK = 1
                          M     endif
                          M 
                          M     if (((TRISIO) & 180h) == 100h)
                          M       if (PREV_BANK == 0)
                          M         bsf     STATUS, RP1
                          M       endif
                          M       if (PREV_BANK == 1)
                          M         bcf     STATUS, RP0
                          M         bsf     STATUS, RP1
                          M       endif
                          M       if (PREV_BANK == 3)
                          M         bcf     STATUS, RP0
                          M       endif
                          M PREV_BANK = 2
                          M     endif
                          M 
                          M     if (((TRISIO) & 180h) == 180h)
                          M       if (PREV_BANK == 0)
                          M         bsf     STATUS, RP0
                          M         bsf     STATUS, RP1
                          M       endif
                          M       if (PREV_BANK == 1)
                          M         bsf     STATUS, RP1
                          M       endif
                          M       if (PREV_BANK == 2)
                          M         bsf     STATUS, RP0
                          M       endif
                          M PREV_BANK = 3
                          M     endif
                          M     if (low (030h) == 0)
                          M         clrf    TRISIO
                          M     else
003F   3030               M         movlw   low (030h)
0040   0085               M         movwf   TRISIO
                          M     endif
                      00124 
                      00125 ; C:\USERS\CALZONTZIN\DESKTOP\DISPOSITIVO STAR3 PIC12F629\DISPOSITIVO BAR PIC12F629.PBP 00016    gpio=0
                      00126         MOVE?CB 000h, GPIO
                          M         CHK?RP  GPIO
                          M     if (((GPIO)  & 180h) == 0)
                          M       if (PREV_BANK == 1)
0041   1283               M         bcf     STATUS, RP0
                          M       endif
                          M       if (PREV_BANK == 2)
                          M         bcf     STATUS, RP1
                          M       endif
                          M       if (PREV_BANK == 3)
                          M         bcf     STATUS, RP0
MPASM 5.62     DISPOSITIVO BAR PIC12F629.ASM   10-4-2016  16:08:13         PAGE  9


LOC  OBJECT CODE     LINE SOURCE TEXT
  VALUE

                          M         bcf     STATUS, RP1
                          M       endif
  00000000                M PREV_BANK = 0
                          M     endif
                          M 
                          M     if (((GPIO)  & 180h) == 80h)
                          M       if (PREV_BANK == 0)
                          M         bsf     STATUS, RP0
                          M       endif
                          M       if (PREV_BANK == 2)
                          M         bsf     STATUS, RP0
                          M         bcf     STATUS, RP1
                          M       endif
                          M       if (PREV_BANK == 3)
                          M         bcf     STATUS, RP1
                          M       endif
                          M PREV_BANK = 1
                          M     endif
                          M 
                          M     if (((GPIO)  & 180h) == 100h)
                          M       if (PREV_BANK == 0)
                          M         bsf     STATUS, RP1
                          M       endif
                          M       if (PREV_BANK == 1)
                          M         bcf     STATUS, RP0
                          M         bsf     STATUS, RP1
                          M       endif
                          M       if (PREV_BANK == 3)
                          M         bcf     STATUS, RP0
                          M       endif
                          M PREV_BANK = 2
                          M     endif
                          M 
                          M     if (((GPIO)  & 180h) == 180h)
                          M       if (PREV_BANK == 0)
                          M         bsf     STATUS, RP0
                          M         bsf     STATUS, RP1
                          M       endif
                          M       if (PREV_BANK == 1)
                          M         bsf     STATUS, RP1
                          M       endif
                          M       if (PREV_BANK == 2)
                          M         bsf     STATUS, RP0
                          M       endif
                          M PREV_BANK = 3
                          M     endif
                          M     if (low (000h) == 0)
0042   0185               M         clrf    GPIO
                          M     else
                          M         movlw   low (000h)
                          M         movwf   GPIO
                          M     endif
                      00127 
MPASM 5.62     DISPOSITIVO BAR PIC12F629.ASM   10-4-2016  16:08:13         PAGE 10


LOC  OBJECT CODE     LINE SOURCE TEXT
  VALUE

                      00128 ; C:\USERS\CALZONTZIN\DESKTOP\DISPOSITIVO STAR3 PIC12F629\DISPOSITIVO BAR PIC12F629.PBP 00023    i=0
                      00129         MOVE?CB 000h, _i
                          M         CHK?RP  _i
                          M     if (((_i)    & 180h) == 0)
                          M       if (PREV_BANK == 1)
                          M         bcf     STATUS, RP0
                          M       endif
                          M       if (PREV_BANK == 2)
                          M         bcf     STATUS, RP1
                          M       endif
                          M       if (PREV_BANK == 3)
                          M         bcf     STATUS, RP0
                          M         bcf     STATUS, RP1
                          M       endif
  00000000                M PREV_BANK = 0
                          M     endif
                          M 
                          M     if (((_i)    & 180h) == 80h)
                          M       if (PREV_BANK == 0)
                          M         bsf     STATUS, RP0
                          M       endif
                          M       if (PREV_BANK == 2)
                          M         bsf     STATUS, RP0
                          M         bcf     STATUS, RP1
                          M       endif
                          M       if (PREV_BANK == 3)
                          M         bcf     STATUS, RP1
                          M       endif
                          M PREV_BANK = 1
                          M     endif
                          M 
                          M     if (((_i)    & 180h) == 100h)
                          M       if (PREV_BANK == 0)
                          M         bsf     STATUS, RP1
                          M       endif
                          M       if (PREV_BANK == 1)
                          M         bcf     STATUS, RP0
                          M         bsf     STATUS, RP1
                          M       endif
                          M       if (PREV_BANK == 3)
                          M         bcf     STATUS, RP0
                          M       endif
                          M PREV_BANK = 2
                          M     endif
                          M 
                          M     if (((_i)    & 180h) == 180h)
                          M       if (PREV_BANK == 0)
                          M         bsf     STATUS, RP0
                          M         bsf     STATUS, RP1
                          M       endif
                          M       if (PREV_BANK == 1)
                          M         bsf     STATUS, RP1
                          M       endif
MPASM 5.62     DISPOSITIVO BAR PIC12F629.ASM   10-4-2016  16:08:13         PAGE 11


LOC  OBJECT CODE     LINE SOURCE TEXT
  VALUE

                          M       if (PREV_BANK == 2)
                          M         bsf     STATUS, RP0
                          M       endif
                          M PREV_BANK = 3
                          M     endif
                          M     if (low (000h) == 0)
0043   01B8               M         clrf    _i
                          M     else
                          M         movlw   low (000h)
                          M         movwf   _i
                          M     endif
                      00130 
                      00131 ; C:\USERS\CALZONTZIN\DESKTOP\DISPOSITIVO STAR3 PIC12F629\DISPOSITIVO BAR PIC12F629.PBP 00024    pause 6000
                      00132         PAUSE?C 01770h
                          M     if (((01770h) >> 8) == 0)
                          M         MOVE?CA 01770h
                          M         L?CALL  PAUSE
                          M     else
                          M         MOVE?CB (01770h) >> 8, R1 + 1
                          M         CHK?RP  R1 + 1
                          M     if (((R1 + 1) & 180h) == 0)
                          M       if (PREV_BANK == 1)
                          M         bcf     STATUS, RP0
                          M       endif
                          M       if (PREV_BANK == 2)
                          M         bcf     STATUS, RP1
                          M       endif
                          M       if (PREV_BANK == 3)
                          M         bcf     STATUS, RP0
                          M         bcf     STATUS, RP1
                          M       endif
  00000000                M PREV_BANK = 0
                          M     endif
                          M 
                          M     if (((R1 + 1) & 180h) == 80h)
                          M       if (PREV_BANK == 0)
                          M         bsf     STATUS, RP0
                          M       endif
                          M       if (PREV_BANK == 2)
                          M         bsf     STATUS, RP0
                          M         bcf     STATUS, RP1
                          M       endif
                          M       if (PREV_BANK == 3)
                          M         bcf     STATUS, RP1
                          M       endif
                          M PREV_BANK = 1
                          M     endif
                          M 
                          M     if (((R1 + 1) & 180h) == 100h)
                          M       if (PREV_BANK == 0)
                          M         bsf     STATUS, RP1
                          M       endif
                          M       if (PREV_BANK == 1)
MPASM 5.62     DISPOSITIVO BAR PIC12F629.ASM   10-4-2016  16:08:13         PAGE 12


LOC  OBJECT CODE     LINE SOURCE TEXT
  VALUE

                          M         bcf     STATUS, RP0
                          M         bsf     STATUS, RP1
                          M       endif
                          M       if (PREV_BANK == 3)
                          M         bcf     STATUS, RP0
                          M       endif
                          M PREV_BANK = 2
                          M     endif
                          M 
                          M     if (((R1 + 1) & 180h) == 180h)
                          M       if (PREV_BANK == 0)
                          M         bsf     STATUS, RP0
                          M         bsf     STATUS, RP1
                          M       endif
                          M       if (PREV_BANK == 1)
                          M         bsf     STATUS, RP1
                          M       endif
                          M       if (PREV_BANK == 2)
                          M         bsf     STATUS, RP0
                          M       endif
                          M PREV_BANK = 3
                          M     endif
                          M     if (low ((01770h) >> 8) == 0)
                          M         clrf    R1 + 1
                          M     else
0044   3017               M         movlw   low ((01770h) >> 8)
0045   00A3               M         movwf   R1 + 1
                          M     endif
                          M         MOVE?CA low (01770h)
0046   3070               M         movlw   low (low (01770h))
                          M         L?CALL  PAUSEL
                          M         RST?RP
                          M     if ((PREV_BANK & 1) != 0)
                          M         bcf     STATUS, RP0
                          M     endif
                          M     if ((PREV_BANK & 2) != 0)
                          M         bcf     STATUS, RP1
                          M     endif
  00000000                M PREV_BANK = 0
                          M 
                          M     ifdef USE_LINKER
                          M       if (CODE_SIZE > 2)
                          M         pagesel PAUSEL
                          M       endif
                          M     else
                          M       if ((PAUSEL) < 1)
                          M         if (CODE_SIZE > 2)
                          M           if (((PAUSEL) & 800h) == 0)
                          M         bcf     PCLATH, 3
                          M         else
                          M         bsf     PCLATH, 3
                          M         endif
                          M         endif
MPASM 5.62     DISPOSITIVO BAR PIC12F629.ASM   10-4-2016  16:08:13         PAGE 13


LOC  OBJECT CODE     LINE SOURCE TEXT
  VALUE

                          M         if (CODE_SIZE > 4)
                          M           if (((PAUSEL) & 1000h) == 0)
                          M         bcf     PCLATH, 4
                          M           else
                          M         bsf     PCLATH, 4
                          M           endif
                          M         endif
                          M       else
                          M         if ((PAUSEL) > $)
                          M           if (CODE_SIZE > 2)
                          M             if (((PAUSEL) & 800h) == 0)
                          M         bcf     PCLATH, 3
                          M             else
                          M         bsf     PCLATH, 3
                          M             endif
                          M           endif
                          M           if (CODE_SIZE > 4)
                          M             if (((PAUSEL) & 1000h) == 0)
                          M         bcf     PCLATH, 4
                          M             else
                          M         bsf     PCLATH, 4
                          M             endif
                          M           endif
                          M         else
                          M           if (CODE_SIZE > 2)
                          M             if (((PAUSEL) & 1800h) == 0)
                          M         clrf    PCLATH
                          M             else
                          M               if (((PAUSEL) & 800h) == 0)
                          M         bcf     PCLATH, 3
                          M               else
                          M         bsf     PCLATH, 3
                          M               endif
                          M               if (CODE_SIZE > 4)
                          M                 if (((PAUSEL) & 1000h) == 0)
                          M         bcf     PCLATH, 4
                          M                 else
                          M         bsf     PCLATH, 4
                          M                 endif   
                          M               endif
                          M             endif
                          M           endif
                          M         endif
                          M       endif
                          M     endif
                          M 
0047   2016               M         call    PAUSEL
                          M     endif
                      00133 
                      00134 ; C:\USERS\CALZONTZIN\DESKTOP\DISPOSITIVO STAR3 PIC12F629\DISPOSITIVO BAR PIC12F629.PBP 00026    inicio:
                      00135 
                      00136         LABEL?L _inicio 
                          M         RST?RP
MPASM 5.62     DISPOSITIVO BAR PIC12F629.ASM   10-4-2016  16:08:13         PAGE 14


LOC  OBJECT CODE     LINE SOURCE TEXT
  VALUE

                          M     if ((PREV_BANK & 1) != 0)
                          M         bcf     STATUS, RP0
                          M     endif
                          M     if ((PREV_BANK & 2) != 0)
                          M         bcf     STATUS, RP1
                          M     endif
  00000000                M PREV_BANK = 0
                          M     ifdef PM_USED
                          M         LALL
                          M _inicio
                          M         XALL
                          M     else
0048                      M _inicio
                          M     endif
                      00137 
                      00138 ; C:\USERS\CALZONTZIN\DESKTOP\DISPOSITIVO STAR3 PIC12F629\DISPOSITIVO BAR PIC12F629.PBP 00027       if i=0 then gosub leemem
                      00139         CMPNE?BCL       _i, 000h, L00001
                          M     if (((000h) > -100h) & ((000h) < 100h))
                          M         CLRWDT?
                          M     ifndef NO_CLRWDT
0048   0064               M         clrwdt
                          M     endif
                          M         MOVE?BA _i
                          M         CHK?RP  _i
                          M     if (((_i)    & 180h) == 0)
                          M       if (PREV_BANK == 1)
                          M         bcf     STATUS, RP0
                          M       endif
                          M       if (PREV_BANK == 2)
                          M         bcf     STATUS, RP1
                          M       endif
                          M       if (PREV_BANK == 3)
                          M         bcf     STATUS, RP0
                          M         bcf     STATUS, RP1
                          M       endif
  00000000                M PREV_BANK = 0
                          M     endif
                          M 
                          M     if (((_i)    & 180h) == 80h)
                          M       if (PREV_BANK == 0)
                          M         bsf     STATUS, RP0
                          M       endif
                          M       if (PREV_BANK == 2)
                          M         bsf     STATUS, RP0
                          M         bcf     STATUS, RP1
                          M       endif
                          M       if (PREV_BANK == 3)
                          M         bcf     STATUS, RP1
                          M       endif
                          M PREV_BANK = 1
                          M     endif
                          M 
                          M     if (((_i)    & 180h) == 100h)
MPASM 5.62     DISPOSITIVO BAR PIC12F629.ASM   10-4-2016  16:08:13         PAGE 15


LOC  OBJECT CODE     LINE SOURCE TEXT
  VALUE

                          M       if (PREV_BANK == 0)
                          M         bsf     STATUS, RP1
                          M       endif
                          M       if (PREV_BANK == 1)
                          M         bcf     STATUS, RP0
                          M         bsf     STATUS, RP1
                          M       endif
                          M       if (PREV_BANK == 3)
                          M         bcf     STATUS, RP0
                          M       endif
                          M PREV_BANK = 2
                          M     endif
                          M 
                          M     if (((_i)    & 180h) == 180h)
                          M       if (PREV_BANK == 0)
                          M         bsf     STATUS, RP0
                          M         bsf     STATUS, RP1
                          M       endif
                          M       if (PREV_BANK == 1)
                          M         bsf     STATUS, RP1
                          M       endif
                          M       if (PREV_BANK == 2)
                          M         bsf     STATUS, RP0
                          M       endif
                          M PREV_BANK = 3
                          M     endif
0049   0838               M         movf    _i,  W
004A   3C00               M         sublw   000h
                          M         BIT?GOTO 0, STATUS, Z, L00001
                          M     ifdef USE_LINKER
                          M         CLRWDT?
                          M     else
                          M       if ($ == (L00001))
                          M         CLRWDT?
                          M       endif
                          M     endif
                          M 
                          M     ifdef USE_LINKER
                          M       if (CODE_SIZE > 2)
                          M         pagesel L00001
                          M       endif
                          M     else
                          M       if (CODE_SIZE > 2)
                          M         if (((L00001) & 800h) == 0)
                          M         bcf     PCLATH, 3
                          M         else
                          M         bsf     PCLATH, 3
                          M         endif
                          M       endif
                          M       if (CODE_SIZE > 4)
                          M         if (((L00001) & 1000h) == 0)
                          M         bcf     PCLATH, 4
                          M         else
MPASM 5.62     DISPOSITIVO BAR PIC12F629.ASM   10-4-2016  16:08:13         PAGE 16


LOC  OBJECT CODE     LINE SOURCE TEXT
  VALUE

                          M         bsf     PCLATH, 4
                          M         endif
                          M       endif
                          M     endif
                          M 
                          M     if (((STATUS) & 0ff80h) != 0)
                          M         CHK?RP  STATUS
                          M         bcf     STATUS, DC
                          M       if ((0)      == 0)
                          M         btfss   STATUS, Z
                          M       else
                          M         btfsc   STATUS, Z
                          M       endif
                          M         bsf     STATUS, DC
                          M         RST?RP
                          M         btfsc   STATUS, DC
                          M     else
                          M         RST?RP
                          M     if ((PREV_BANK & 1) != 0)
                          M         bcf     STATUS, RP0
                          M     endif
                          M     if ((PREV_BANK & 2) != 0)
                          M         bcf     STATUS, RP1
                          M     endif
  00000000                M PREV_BANK = 0
                          M       if ((0)      == 0)
004B   1D03               M         btfss   STATUS, Z
                          M       else
                          M         btfsc   STATUS, Z
                          M       endif
                          M     endif
                          M 
004C   284E               M         goto    L00001
                          M     else
                          M         L?GOTO  L00001
                          M     endif
                      00140         GOSUB?L _leemem
  0000                    M     local dlabel
                          M     ifdef DEBUG_STACK
                          M         CHK?RP  DEBUG_STACK
                          M       ifdef DEBUG_STACK_ADDR
                          M         bcf     STATUS, C
                          M         rlf     DEBUG_STACK, W
                          M         addlw   DEBUG_STACK_ADDR
                          M         movwf   FSR
                          M         movlw   low (dlabel)
                          M         movwf   INDF
                          M         incf    FSR, F
                          M         movlw   high (dlabel)
                          M         movwf   INDF
                          M       endif
                          M         incf    DEBUG_STACK, F
                          M     endif
MPASM 5.62     DISPOSITIVO BAR PIC12F629.ASM   10-4-2016  16:08:13         PAGE 17


LOC  OBJECT CODE     LINE SOURCE TEXT
  VALUE

                          M         L?CALL  _leemem
                          M         RST?RP
                          M     if ((PREV_BANK & 1) != 0)
                          M         bcf     STATUS, RP0
                          M     endif
                          M     if ((PREV_BANK & 2) != 0)
                          M         bcf     STATUS, RP1
                          M     endif
  00000000                M PREV_BANK = 0
                          M 
                          M     ifdef USE_LINKER
                          M       if (CODE_SIZE > 2)
                          M         pagesel _leemem
                          M       endif
                          M     else
                          M       if ((_leemem) < 1)
                          M         if (CODE_SIZE > 2)
                          M           if (((_leemem) & 800h) == 0)
                          M         bcf     PCLATH, 3
                          M         else
                          M         bsf     PCLATH, 3
                          M         endif
                          M         endif
                          M         if (CODE_SIZE > 4)
                          M           if (((_leemem) & 1000h) == 0)
                          M         bcf     PCLATH, 4
                          M           else
                          M         bsf     PCLATH, 4
                          M           endif
                          M         endif
                          M       else
                          M         if ((_leemem) > $)
                          M           if (CODE_SIZE > 2)
                          M             if (((_leemem) & 800h) == 0)
                          M         bcf     PCLATH, 3
                          M             else
                          M         bsf     PCLATH, 3
                          M             endif
                          M           endif
                          M           if (CODE_SIZE > 4)
                          M             if (((_leemem) & 1000h) == 0)
                          M         bcf     PCLATH, 4
                          M             else
                          M         bsf     PCLATH, 4
                          M             endif
                          M           endif
                          M         else
                          M           if (CODE_SIZE > 2)
                          M             if (((_leemem) & 1800h) == 0)
                          M         clrf    PCLATH
                          M             else
                          M               if (((_leemem) & 800h) == 0)
                          M         bcf     PCLATH, 3
MPASM 5.62     DISPOSITIVO BAR PIC12F629.ASM   10-4-2016  16:08:13         PAGE 18


LOC  OBJECT CODE     LINE SOURCE TEXT
  VALUE

                          M               else
                          M         bsf     PCLATH, 3
                          M               endif
                          M               if (CODE_SIZE > 4)
                          M                 if (((_leemem) & 1000h) == 0)
                          M         bcf     PCLATH, 4
                          M                 else
                          M         bsf     PCLATH, 4
                          M                 endif   
                          M               endif
                          M             endif
                          M           endif
                          M         endif
                          M       endif
                          M     endif
                          M 
004D   2087               M         call    _leemem
004E                      M dlabel
                      00141         LABEL?L L00001  
                          M         RST?RP
                          M     if ((PREV_BANK & 1) != 0)
                          M         bcf     STATUS, RP0
                          M     endif
                          M     if ((PREV_BANK & 2) != 0)
                          M         bcf     STATUS, RP1
                          M     endif
  00000000                M PREV_BANK = 0
                          M     ifdef PM_USED
                          M         LALL
                          M L00001
                          M         XALL
                          M     else
004E                      M L00001
                          M     endif
                      00142 
                      00143 ; C:\USERS\CALZONTZIN\DESKTOP\DISPOSITIVO STAR3 PIC12F629\DISPOSITIVO BAR PIC12F629.PBP 00028       if gpio.5 = 1 then gosub btnstart
                      00144         CMPNE?TCL       _GPIO??5, 001h, L00003
                          M     if ((001h) == 0)
                          M         CLRWDT?
                          M         BIT?GOTO 1, GPIO,  005h,  L00003
                          M     else
                          M       if ((001h) == 1)
                          M         CLRWDT?
                          M     ifndef NO_CLRWDT
004E   0064               M         clrwdt
                          M     endif
                          M         BIT?GOTO 0, GPIO,  005h,  L00003
                          M     ifdef USE_LINKER
                          M         CLRWDT?
                          M     else
                          M       if ($ == (L00003))
                          M         CLRWDT?
                          M       endif
MPASM 5.62     DISPOSITIVO BAR PIC12F629.ASM   10-4-2016  16:08:13         PAGE 19


LOC  OBJECT CODE     LINE SOURCE TEXT
  VALUE

                          M     endif
                          M 
                          M     ifdef USE_LINKER
                          M       if (CODE_SIZE > 2)
                          M         pagesel L00003
                          M       endif
                          M     else
                          M       if (CODE_SIZE > 2)
                          M         if (((L00003) & 800h) == 0)
                          M         bcf     PCLATH, 3
                          M         else
                          M         bsf     PCLATH, 3
                          M         endif
                          M       endif
                          M       if (CODE_SIZE > 4)
                          M         if (((L00003) & 1000h) == 0)
                          M         bcf     PCLATH, 4
                          M         else
                          M         bsf     PCLATH, 4
                          M         endif
                          M       endif
                          M     endif
                          M 
                          M     if (((GPIO)  & 0ff80h) != 0)
                          M         CHK?RP  GPIO
                          M         bcf     STATUS, DC
                          M       if ((0)      == 0)
                          M         btfss   GPIO,  005h
                          M       else
                          M         btfsc   GPIO,  005h
                          M       endif
                          M         bsf     STATUS, DC
                          M         RST?RP
                          M         btfsc   STATUS, DC
                          M     else
                          M         RST?RP
                          M     if ((PREV_BANK & 1) != 0)
                          M         bcf     STATUS, RP0
                          M     endif
                          M     if ((PREV_BANK & 2) != 0)
                          M         bcf     STATUS, RP1
                          M     endif
  00000000                M PREV_BANK = 0
                          M       if ((0)      == 0)
004F   1E85               M         btfss   GPIO,  005h
                          M       else
                          M         btfsc   GPIO,  005h
                          M       endif
                          M     endif
                          M 
0050   2852               M         goto    L00003
                          M       else
                          M         L?GOTO  L00003
MPASM 5.62     DISPOSITIVO BAR PIC12F629.ASM   10-4-2016  16:08:13         PAGE 20


LOC  OBJECT CODE     LINE SOURCE TEXT
  VALUE

                          M       endif
                          M     endif
                      00145         GOSUB?L _btnstart
  0000                    M     local dlabel
                          M     ifdef DEBUG_STACK
                          M         CHK?RP  DEBUG_STACK
                          M       ifdef DEBUG_STACK_ADDR
                          M         bcf     STATUS, C
                          M         rlf     DEBUG_STACK, W
                          M         addlw   DEBUG_STACK_ADDR
                          M         movwf   FSR
                          M         movlw   low (dlabel)
                          M         movwf   INDF
                          M         incf    FSR, F
                          M         movlw   high (dlabel)
                          M         movwf   INDF
                          M       endif
                          M         incf    DEBUG_STACK, F
                          M     endif
                          M         L?CALL  _btnstart
                          M         RST?RP
                          M     if ((PREV_BANK & 1) != 0)
                          M         bcf     STATUS, RP0
                          M     endif
                          M     if ((PREV_BANK & 2) != 0)
                          M         bcf     STATUS, RP1
                          M     endif
  00000000                M PREV_BANK = 0
                          M 
                          M     ifdef USE_LINKER
                          M       if (CODE_SIZE > 2)
                          M         pagesel _btnstart
                          M       endif
                          M     else
                          M       if ((_btnstart) < 1)
                          M         if (CODE_SIZE > 2)
                          M           if (((_btnstart) & 800h) == 0)
                          M         bcf     PCLATH, 3
                          M         else
                          M         bsf     PCLATH, 3
                          M         endif
                          M         endif
                          M         if (CODE_SIZE > 4)
                          M           if (((_btnstart) & 1000h) == 0)
                          M         bcf     PCLATH, 4
                          M           else
                          M         bsf     PCLATH, 4
                          M           endif
                          M         endif
                          M       else
                          M         if ((_btnstart) > $)
                          M           if (CODE_SIZE > 2)
                          M             if (((_btnstart) & 800h) == 0)
MPASM 5.62     DISPOSITIVO BAR PIC12F629.ASM   10-4-2016  16:08:13         PAGE 21


LOC  OBJECT CODE     LINE SOURCE TEXT
  VALUE

                          M         bcf     PCLATH, 3
                          M             else
                          M         bsf     PCLATH, 3
                          M             endif
                          M           endif
                          M           if (CODE_SIZE > 4)
                          M             if (((_btnstart) & 1000h) == 0)
                          M         bcf     PCLATH, 4
                          M             else
                          M         bsf     PCLATH, 4
                          M             endif
                          M           endif
                          M         else
                          M           if (CODE_SIZE > 2)
                          M             if (((_btnstart) & 1800h) == 0)
                          M         clrf    PCLATH
                          M             else
                          M               if (((_btnstart) & 800h) == 0)
                          M         bcf     PCLATH, 3
                          M               else
                          M         bsf     PCLATH, 3
                          M               endif
                          M               if (CODE_SIZE > 4)
                          M                 if (((_btnstart) & 1000h) == 0)
                          M         bcf     PCLATH, 4
                          M                 else
                          M         bsf     PCLATH, 4
                          M                 endif   
                          M               endif
                          M             endif
                          M           endif
                          M         endif
                          M       endif
                          M     endif
                          M 
0051   2057               M         call    _btnstart
0052                      M dlabel
                      00146         LABEL?L L00003  
                          M         RST?RP
                          M     if ((PREV_BANK & 1) != 0)
                          M         bcf     STATUS, RP0
                          M     endif
                          M     if ((PREV_BANK & 2) != 0)
                          M         bcf     STATUS, RP1
                          M     endif
  00000000                M PREV_BANK = 0
                          M     ifdef PM_USED
                          M         LALL
                          M L00003
                          M         XALL
                          M     else
0052                      M L00003
                          M     endif
MPASM 5.62     DISPOSITIVO BAR PIC12F629.ASM   10-4-2016  16:08:13         PAGE 22


LOC  OBJECT CODE     LINE SOURCE TEXT
  VALUE

                      00147 
                      00148 ; C:\USERS\CALZONTZIN\DESKTOP\DISPOSITIVO STAR3 PIC12F629\DISPOSITIVO BAR PIC12F629.PBP 00029       if gpio.4 = 1 then gosub btnbar
                      00149         CMPNE?TCL       _GPIO??4, 001h, L00005
                          M     if ((001h) == 0)
                          M         CLRWDT?
                          M         BIT?GOTO 1, GPIO,  004h,  L00005
                          M     else
                          M       if ((001h) == 1)
                          M         CLRWDT?
                          M     ifndef NO_CLRWDT
0052   0064               M         clrwdt
                          M     endif
                          M         BIT?GOTO 0, GPIO,  004h,  L00005
                          M     ifdef USE_LINKER
                          M         CLRWDT?
                          M     else
                          M       if ($ == (L00005))
                          M         CLRWDT?
                          M       endif
                          M     endif
                          M 
                          M     ifdef USE_LINKER
                          M       if (CODE_SIZE > 2)
                          M         pagesel L00005
                          M       endif
                          M     else
                          M       if (CODE_SIZE > 2)
                          M         if (((L00005) & 800h) == 0)
                          M         bcf     PCLATH, 3
                          M         else
                          M         bsf     PCLATH, 3
                          M         endif
                          M       endif
                          M       if (CODE_SIZE > 4)
                          M         if (((L00005) & 1000h) == 0)
                          M         bcf     PCLATH, 4
                          M         else
                          M         bsf     PCLATH, 4
                          M         endif
                          M       endif
                          M     endif
                          M 
                          M     if (((GPIO)  & 0ff80h) != 0)
                          M         CHK?RP  GPIO
                          M         bcf     STATUS, DC
                          M       if ((0)      == 0)
                          M         btfss   GPIO,  004h
                          M       else
                          M         btfsc   GPIO,  004h
                          M       endif
                          M         bsf     STATUS, DC
                          M         RST?RP
                          M         btfsc   STATUS, DC
MPASM 5.62     DISPOSITIVO BAR PIC12F629.ASM   10-4-2016  16:08:13         PAGE 23


LOC  OBJECT CODE     LINE SOURCE TEXT
  VALUE

                          M     else
                          M         RST?RP
                          M     if ((PREV_BANK & 1) != 0)
                          M         bcf     STATUS, RP0
                          M     endif
                          M     if ((PREV_BANK & 2) != 0)
                          M         bcf     STATUS, RP1
                          M     endif
  00000000                M PREV_BANK = 0
                          M       if ((0)      == 0)
0053   1E05               M         btfss   GPIO,  004h
                          M       else
                          M         btfsc   GPIO,  004h
                          M       endif
                          M     endif
                          M 
0054   2856               M         goto    L00005
                          M       else
                          M         L?GOTO  L00005
                          M       endif
                          M     endif
                      00150         GOSUB?L _btnbar
  0000                    M     local dlabel
                          M     ifdef DEBUG_STACK
                          M         CHK?RP  DEBUG_STACK
                          M       ifdef DEBUG_STACK_ADDR
                          M         bcf     STATUS, C
                          M         rlf     DEBUG_STACK, W
                          M         addlw   DEBUG_STACK_ADDR
                          M         movwf   FSR
                          M         movlw   low (dlabel)
                          M         movwf   INDF
                          M         incf    FSR, F
                          M         movlw   high (dlabel)
                          M         movwf   INDF
                          M       endif
                          M         incf    DEBUG_STACK, F
                          M     endif
                          M         L?CALL  _btnbar
                          M         RST?RP
                          M     if ((PREV_BANK & 1) != 0)
                          M         bcf     STATUS, RP0
                          M     endif
                          M     if ((PREV_BANK & 2) != 0)
                          M         bcf     STATUS, RP1
                          M     endif
  00000000                M PREV_BANK = 0
                          M 
                          M     ifdef USE_LINKER
                          M       if (CODE_SIZE > 2)
                          M         pagesel _btnbar
                          M       endif
                          M     else
MPASM 5.62     DISPOSITIVO BAR PIC12F629.ASM   10-4-2016  16:08:13         PAGE 24


LOC  OBJECT CODE     LINE SOURCE TEXT
  VALUE

                          M       if ((_btnbar) < 1)
                          M         if (CODE_SIZE > 2)
                          M           if (((_btnbar) & 800h) == 0)
                          M         bcf     PCLATH, 3
                          M         else
                          M         bsf     PCLATH, 3
                          M         endif
                          M         endif
                          M         if (CODE_SIZE > 4)
                          M           if (((_btnbar) & 1000h) == 0)
                          M         bcf     PCLATH, 4
                          M           else
                          M         bsf     PCLATH, 4
                          M           endif
                          M         endif
                          M       else
                          M         if ((_btnbar) > $)
                          M           if (CODE_SIZE > 2)
                          M             if (((_btnbar) & 800h) == 0)
                          M         bcf     PCLATH, 3
                          M             else
                          M         bsf     PCLATH, 3
                          M             endif
                          M           endif
                          M           if (CODE_SIZE > 4)
                          M             if (((_btnbar) & 1000h) == 0)
                          M         bcf     PCLATH, 4
                          M             else
                          M         bsf     PCLATH, 4
                          M             endif
                          M           endif
                          M         else
                          M           if (CODE_SIZE > 2)
                          M             if (((_btnbar) & 1800h) == 0)
                          M         clrf    PCLATH
                          M             else
                          M               if (((_btnbar) & 800h) == 0)
                          M         bcf     PCLATH, 3
                          M               else
                          M         bsf     PCLATH, 3
                          M               endif
                          M               if (CODE_SIZE > 4)
                          M                 if (((_btnbar) & 1000h) == 0)
                          M         bcf     PCLATH, 4
                          M                 else
                          M         bsf     PCLATH, 4
                          M                 endif   
                          M               endif
                          M             endif
                          M           endif
                          M         endif
                          M       endif
                          M     endif
MPASM 5.62     DISPOSITIVO BAR PIC12F629.ASM   10-4-2016  16:08:13         PAGE 25


LOC  OBJECT CODE     LINE SOURCE TEXT
  VALUE

                          M 
0055   206C               M         call    _btnbar
0056                      M dlabel
                      00151         LABEL?L L00005  
                          M         RST?RP
                          M     if ((PREV_BANK & 1) != 0)
                          M         bcf     STATUS, RP0
                          M     endif
                          M     if ((PREV_BANK & 2) != 0)
                          M         bcf     STATUS, RP1
                          M     endif
  00000000                M PREV_BANK = 0
                          M     ifdef PM_USED
                          M         LALL
                          M L00005
                          M         XALL
                          M     else
0056                      M L00005
                          M     endif
                      00152 
                      00153 ; C:\USERS\CALZONTZIN\DESKTOP\DISPOSITIVO STAR3 PIC12F629\DISPOSITIVO BAR PIC12F629.PBP 00030       goto inicio
                      00154         GOTO?L  _inicio
                          M         L?GOTO  _inicio
                          M     ifdef USE_LINKER
                          M         CLRWDT?
                          M     else
                          M       if ($ == (_inicio))
                          M         CLRWDT?
                          M       endif
                          M     endif
                          M 
                          M         RST?RP
                          M     if ((PREV_BANK & 1) != 0)
                          M         bcf     STATUS, RP0
                          M     endif
                          M     if ((PREV_BANK & 2) != 0)
                          M         bcf     STATUS, RP1
                          M     endif
  00000000                M PREV_BANK = 0
                          M 
                          M     ifdef USE_LINKER
                          M       if (CODE_SIZE > 2)
                          M         pagesel _inicio
                          M       endif
                          M     else
                          M       if ((_inicio) < 1)
                          M         if (CODE_SIZE > 2)
                          M           if (((_inicio) & 800h) == 0)
                          M         bcf     PCLATH, 3
                          M           else
                          M         bsf     PCLATH, 3
                          M           endif
                          M         endif
MPASM 5.62     DISPOSITIVO BAR PIC12F629.ASM   10-4-2016  16:08:13         PAGE 26


LOC  OBJECT CODE     LINE SOURCE TEXT
  VALUE

                          M         if (CODE_SIZE > 4)
                          M           if (((_inicio) & 1000h) == 0)
                          M         bcf     PCLATH, 4
                          M           else
                          M         bsf     PCLATH, 4
                          M           endif
                          M         endif
                          M       else
                          M         if ((_inicio) > $)
                          M           if (CODE_SIZE > 2)
                          M             if (((_inicio) & 800h) == 0)
                          M         bcf     PCLATH, 3
                          M             else
                          M         bsf     PCLATH, 3
                          M             endif
                          M           endif
                          M           if (CODE_SIZE > 4)
                          M             if (((_inicio) & 1000h) == 0)
                          M         bcf     PCLATH, 4
                          M             else
                          M         bsf     PCLATH, 4
                          M             endif
                          M           endif
                          M         else
                          M           if (CODE_SIZE > 2)
                          M             if (((_inicio) & 1800h) == 0)
                          M         clrf    PCLATH
                          M             else
                          M               if (((_inicio) & 800h) == 0)
                          M         bcf     PCLATH, 3
                          M               else
                          M         bsf     PCLATH, 3
                          M               endif
                          M               if (CODE_SIZE > 4)
                          M                 if (((_inicio) & 1000h) == 0)
                          M         bcf     PCLATH, 4
                          M                 else
                          M         bsf     PCLATH, 4
                          M                 endif
                          M               endif
                          M             endif
                          M           endif
                          M         endif
                          M       endif
                          M     endif
                          M 
0056   2848               M         goto    _inicio
                      00155 
                      00156 ; C:\USERS\CALZONTZIN\DESKTOP\DISPOSITIVO STAR3 PIC12F629\DISPOSITIVO BAR PIC12F629.PBP 00032    btnstart:
                      00157 
                      00158         LABEL?L _btnstart       
                          M         RST?RP
                          M     if ((PREV_BANK & 1) != 0)
MPASM 5.62     DISPOSITIVO BAR PIC12F629.ASM   10-4-2016  16:08:13         PAGE 27


LOC  OBJECT CODE     LINE SOURCE TEXT
  VALUE

                          M         bcf     STATUS, RP0
                          M     endif
                          M     if ((PREV_BANK & 2) != 0)
                          M         bcf     STATUS, RP1
                          M     endif
  00000000                M PREV_BANK = 0
                          M     ifdef PM_USED
                          M         LALL
                          M _btnstart
                          M         XALL
                          M     else
0057                      M _btnstart
                          M     endif
                      00159 
                      00160 ; C:\USERS\CALZONTZIN\DESKTOP\DISPOSITIVO STAR3 PIC12F629\DISPOSITIVO BAR PIC12F629.PBP 00033       high startled
                      00161         HIGH?T  _startled
                          M         MOVE?CT 1, GPIO,  000h
                          M         CHK?RP  GPIO
                          M     if (((GPIO)  & 180h) == 0)
                          M       if (PREV_BANK == 1)
                          M         bcf     STATUS, RP0
                          M       endif
                          M       if (PREV_BANK == 2)
                          M         bcf     STATUS, RP1
                          M       endif
                          M       if (PREV_BANK == 3)
                          M         bcf     STATUS, RP0
                          M         bcf     STATUS, RP1
                          M       endif
  00000000                M PREV_BANK = 0
                          M     endif
                          M 
                          M     if (((GPIO)  & 180h) == 80h)
                          M       if (PREV_BANK == 0)
                          M         bsf     STATUS, RP0
                          M       endif
                          M       if (PREV_BANK == 2)
                          M         bsf     STATUS, RP0
                          M         bcf     STATUS, RP1
                          M       endif
                          M       if (PREV_BANK == 3)
                          M         bcf     STATUS, RP1
                          M       endif
                          M PREV_BANK = 1
                          M     endif
                          M 
                          M     if (((GPIO)  & 180h) == 100h)
                          M       if (PREV_BANK == 0)
                          M         bsf     STATUS, RP1
                          M       endif
                          M       if (PREV_BANK == 1)
                          M         bcf     STATUS, RP0
                          M         bsf     STATUS, RP1
MPASM 5.62     DISPOSITIVO BAR PIC12F629.ASM   10-4-2016  16:08:13         PAGE 28


LOC  OBJECT CODE     LINE SOURCE TEXT
  VALUE

                          M       endif
                          M       if (PREV_BANK == 3)
                          M         bcf     STATUS, RP0
                          M       endif
                          M PREV_BANK = 2
                          M     endif
                          M 
                          M     if (((GPIO)  & 180h) == 180h)
                          M       if (PREV_BANK == 0)
                          M         bsf     STATUS, RP0
                          M         bsf     STATUS, RP1
                          M       endif
                          M       if (PREV_BANK == 1)
                          M         bsf     STATUS, RP1
                          M       endif
                          M       if (PREV_BANK == 2)
                          M         bsf     STATUS, RP0
                          M       endif
                          M PREV_BANK = 3
                          M     endif
                          M     if (((1)   & 1) == 1)
0057   1405               M         bsf     GPIO,   000h
                          M     else
                          M         bcf     GPIO,   000h
                          M     endif
                          M         MOVE?CT 0, ((GPIO)  + 80h), 000h
                          M         CHK?RP  ((GPIO) + 80h)
                          M     if (((((GPIO) + 80h)) & 180h) == 0)
                          M       if (PREV_BANK == 1)
                          M         bcf     STATUS, RP0
                          M       endif
                          M       if (PREV_BANK == 2)
                          M         bcf     STATUS, RP1
                          M       endif
                          M       if (PREV_BANK == 3)
                          M         bcf     STATUS, RP0
                          M         bcf     STATUS, RP1
                          M       endif
                          M PREV_BANK = 0
                          M     endif
                          M 
                          M     if (((((GPIO) + 80h)) & 180h) == 80h)
                          M       if (PREV_BANK == 0)
0058   1683               M         bsf     STATUS, RP0
                          M       endif
                          M       if (PREV_BANK == 2)
                          M         bsf     STATUS, RP0
                          M         bcf     STATUS, RP1
                          M       endif
                          M       if (PREV_BANK == 3)
                          M         bcf     STATUS, RP1
                          M       endif
  00000001                M PREV_BANK = 1
MPASM 5.62     DISPOSITIVO BAR PIC12F629.ASM   10-4-2016  16:08:13         PAGE 29


LOC  OBJECT CODE     LINE SOURCE TEXT
  VALUE

                          M     endif
                          M 
                          M     if (((((GPIO) + 80h)) & 180h) == 100h)
                          M       if (PREV_BANK == 0)
                          M         bsf     STATUS, RP1
                          M       endif
                          M       if (PREV_BANK == 1)
                          M         bcf     STATUS, RP0
                          M         bsf     STATUS, RP1
                          M       endif
                          M       if (PREV_BANK == 3)
                          M         bcf     STATUS, RP0
                          M       endif
                          M PREV_BANK = 2
                          M     endif
                          M 
                          M     if (((((GPIO) + 80h)) & 180h) == 180h)
                          M       if (PREV_BANK == 0)
                          M         bsf     STATUS, RP0
                          M         bsf     STATUS, RP1
                          M       endif
                          M       if (PREV_BANK == 1)
                          M         bsf     STATUS, RP1
                          M       endif
                          M       if (PREV_BANK == 2)
                          M         bsf     STATUS, RP0
                          M       endif
                          M PREV_BANK = 3
                          M     endif
                          M     if (((0)   & 1) == 1)
                          M         bsf     ((GPIO) + 80h), 000h
                          M     else
0059   1005               M         bcf     ((GPIO) + 80h), 000h
                          M     endif
                      00162 
                      00163 ; C:\USERS\CALZONTZIN\DESKTOP\DISPOSITIVO STAR3 PIC12F629\DISPOSITIVO BAR PIC12F629.PBP 00034       pause 500
                      00164         PAUSE?C 001F4h
                          M     if (((001F4h) >> 8) == 0)
                          M         MOVE?CA 001F4h
                          M         L?CALL  PAUSE
                          M     else
                          M         MOVE?CB (001F4h) >> 8, R1 + 1
                          M         CHK?RP  R1 + 1
                          M     if (((R1 + 1) & 180h) == 0)
                          M       if (PREV_BANK == 1)
005A   1283               M         bcf     STATUS, RP0
                          M       endif
                          M       if (PREV_BANK == 2)
                          M         bcf     STATUS, RP1
                          M       endif
                          M       if (PREV_BANK == 3)
                          M         bcf     STATUS, RP0
                          M         bcf     STATUS, RP1
MPASM 5.62     DISPOSITIVO BAR PIC12F629.ASM   10-4-2016  16:08:13         PAGE 30


LOC  OBJECT CODE     LINE SOURCE TEXT
  VALUE

                          M       endif
  00000000                M PREV_BANK = 0
                          M     endif
                          M 
                          M     if (((R1 + 1) & 180h) == 80h)
                          M       if (PREV_BANK == 0)
                          M         bsf     STATUS, RP0
                          M       endif
                          M       if (PREV_BANK == 2)
                          M         bsf     STATUS, RP0
                          M         bcf     STATUS, RP1
                          M       endif
                          M       if (PREV_BANK == 3)
                          M         bcf     STATUS, RP1
                          M       endif
                          M PREV_BANK = 1
                          M     endif
                          M 
                          M     if (((R1 + 1) & 180h) == 100h)
                          M       if (PREV_BANK == 0)
                          M         bsf     STATUS, RP1
                          M       endif
                          M       if (PREV_BANK == 1)
                          M         bcf     STATUS, RP0
                          M         bsf     STATUS, RP1
                          M       endif
                          M       if (PREV_BANK == 3)
                          M         bcf     STATUS, RP0
                          M       endif
                          M PREV_BANK = 2
                          M     endif
                          M 
                          M     if (((R1 + 1) & 180h) == 180h)
                          M       if (PREV_BANK == 0)
                          M         bsf     STATUS, RP0
                          M         bsf     STATUS, RP1
                          M       endif
                          M       if (PREV_BANK == 1)
                          M         bsf     STATUS, RP1
                          M       endif
                          M       if (PREV_BANK == 2)
                          M         bsf     STATUS, RP0
                          M       endif
                          M PREV_BANK = 3
                          M     endif
                          M     if (low ((001F4h) >> 8) == 0)
                          M         clrf    R1 + 1
                          M     else
005B   3001               M         movlw   low ((001F4h) >> 8)
005C   00A3               M         movwf   R1 + 1
                          M     endif
                          M         MOVE?CA low (001F4h)
005D   30F4               M         movlw   low (low (001F4h))
MPASM 5.62     DISPOSITIVO BAR PIC12F629.ASM   10-4-2016  16:08:13         PAGE 31


LOC  OBJECT CODE     LINE SOURCE TEXT
  VALUE

                          M         L?CALL  PAUSEL
                          M         RST?RP
                          M     if ((PREV_BANK & 1) != 0)
                          M         bcf     STATUS, RP0
                          M     endif
                          M     if ((PREV_BANK & 2) != 0)
                          M         bcf     STATUS, RP1
                          M     endif
  00000000                M PREV_BANK = 0
                          M 
                          M     ifdef USE_LINKER
                          M       if (CODE_SIZE > 2)
                          M         pagesel PAUSEL
                          M       endif
                          M     else
                          M       if ((PAUSEL) < 1)
                          M         if (CODE_SIZE > 2)
                          M           if (((PAUSEL) & 800h) == 0)
                          M         bcf     PCLATH, 3
                          M         else
                          M         bsf     PCLATH, 3
                          M         endif
                          M         endif
                          M         if (CODE_SIZE > 4)
                          M           if (((PAUSEL) & 1000h) == 0)
                          M         bcf     PCLATH, 4
                          M           else
                          M         bsf     PCLATH, 4
                          M           endif
                          M         endif
                          M       else
                          M         if ((PAUSEL) > $)
                          M           if (CODE_SIZE > 2)
                          M             if (((PAUSEL) & 800h) == 0)
                          M         bcf     PCLATH, 3
                          M             else
                          M         bsf     PCLATH, 3
                          M             endif
                          M           endif
                          M           if (CODE_SIZE > 4)
                          M             if (((PAUSEL) & 1000h) == 0)
                          M         bcf     PCLATH, 4
                          M             else
                          M         bsf     PCLATH, 4
                          M             endif
                          M           endif
                          M         else
                          M           if (CODE_SIZE > 2)
                          M             if (((PAUSEL) & 1800h) == 0)
                          M         clrf    PCLATH
                          M             else
                          M               if (((PAUSEL) & 800h) == 0)
                          M         bcf     PCLATH, 3
MPASM 5.62     DISPOSITIVO BAR PIC12F629.ASM   10-4-2016  16:08:13         PAGE 32


LOC  OBJECT CODE     LINE SOURCE TEXT
  VALUE

                          M               else
                          M         bsf     PCLATH, 3
                          M               endif
                          M               if (CODE_SIZE > 4)
                          M                 if (((PAUSEL) & 1000h) == 0)
                          M         bcf     PCLATH, 4
                          M                 else
                          M         bsf     PCLATH, 4
                          M                 endif   
                          M               endif
                          M             endif
                          M           endif
                          M         endif
                          M       endif
                          M     endif
                          M 
005E   2016               M         call    PAUSEL
                          M     endif
                      00165 
                      00166 ; C:\USERS\CALZONTZIN\DESKTOP\DISPOSITIVO STAR3 PIC12F629\DISPOSITIVO BAR PIC12F629.PBP 00035       low startled
                      00167         LOW?T   _startled
                          M         MOVE?CT 0, GPIO,  000h
                          M         CHK?RP  GPIO
                          M     if (((GPIO)  & 180h) == 0)
                          M       if (PREV_BANK == 1)
                          M         bcf     STATUS, RP0
                          M       endif
                          M       if (PREV_BANK == 2)
                          M         bcf     STATUS, RP1
                          M       endif
                          M       if (PREV_BANK == 3)
                          M         bcf     STATUS, RP0
                          M         bcf     STATUS, RP1
                          M       endif
  00000000                M PREV_BANK = 0
                          M     endif
                          M 
                          M     if (((GPIO)  & 180h) == 80h)
                          M       if (PREV_BANK == 0)
                          M         bsf     STATUS, RP0
                          M       endif
                          M       if (PREV_BANK == 2)
                          M         bsf     STATUS, RP0
                          M         bcf     STATUS, RP1
                          M       endif
                          M       if (PREV_BANK == 3)
                          M         bcf     STATUS, RP1
                          M       endif
                          M PREV_BANK = 1
                          M     endif
                          M 
                          M     if (((GPIO)  & 180h) == 100h)
                          M       if (PREV_BANK == 0)
MPASM 5.62     DISPOSITIVO BAR PIC12F629.ASM   10-4-2016  16:08:13         PAGE 33


LOC  OBJECT CODE     LINE SOURCE TEXT
  VALUE

                          M         bsf     STATUS, RP1
                          M       endif
                          M       if (PREV_BANK == 1)
                          M         bcf     STATUS, RP0
                          M         bsf     STATUS, RP1
                          M       endif
                          M       if (PREV_BANK == 3)
                          M         bcf     STATUS, RP0
                          M       endif
                          M PREV_BANK = 2
                          M     endif
                          M 
                          M     if (((GPIO)  & 180h) == 180h)
                          M       if (PREV_BANK == 0)
                          M         bsf     STATUS, RP0
                          M         bsf     STATUS, RP1
                          M       endif
                          M       if (PREV_BANK == 1)
                          M         bsf     STATUS, RP1
                          M       endif
                          M       if (PREV_BANK == 2)
                          M         bsf     STATUS, RP0
                          M       endif
                          M PREV_BANK = 3
                          M     endif
                          M     if (((0)   & 1) == 1)
                          M         bsf     GPIO,   000h
                          M     else
005F   1005               M         bcf     GPIO,   000h
                          M     endif
                          M         MOVE?CT 0, ((GPIO)  + 80h), 000h
                          M         CHK?RP  ((GPIO) + 80h)
                          M     if (((((GPIO) + 80h)) & 180h) == 0)
                          M       if (PREV_BANK == 1)
                          M         bcf     STATUS, RP0
                          M       endif
                          M       if (PREV_BANK == 2)
                          M         bcf     STATUS, RP1
                          M       endif
                          M       if (PREV_BANK == 3)
                          M         bcf     STATUS, RP0
                          M         bcf     STATUS, RP1
                          M       endif
                          M PREV_BANK = 0
                          M     endif
                          M 
                          M     if (((((GPIO) + 80h)) & 180h) == 80h)
                          M       if (PREV_BANK == 0)
0060   1683               M         bsf     STATUS, RP0
                          M       endif
                          M       if (PREV_BANK == 2)
                          M         bsf     STATUS, RP0
                          M         bcf     STATUS, RP1
MPASM 5.62     DISPOSITIVO BAR PIC12F629.ASM   10-4-2016  16:08:13         PAGE 34


LOC  OBJECT CODE     LINE SOURCE TEXT
  VALUE

                          M       endif
                          M       if (PREV_BANK == 3)
                          M         bcf     STATUS, RP1
                          M       endif
  00000001                M PREV_BANK = 1
                          M     endif
                          M 
                          M     if (((((GPIO) + 80h)) & 180h) == 100h)
                          M       if (PREV_BANK == 0)
                          M         bsf     STATUS, RP1
                          M       endif
                          M       if (PREV_BANK == 1)
                          M         bcf     STATUS, RP0
                          M         bsf     STATUS, RP1
                          M       endif
                          M       if (PREV_BANK == 3)
                          M         bcf     STATUS, RP0
                          M       endif
                          M PREV_BANK = 2
                          M     endif
                          M 
                          M     if (((((GPIO) + 80h)) & 180h) == 180h)
                          M       if (PREV_BANK == 0)
                          M         bsf     STATUS, RP0
                          M         bsf     STATUS, RP1
                          M       endif
                          M       if (PREV_BANK == 1)
                          M         bsf     STATUS, RP1
                          M       endif
                          M       if (PREV_BANK == 2)
                          M         bsf     STATUS, RP0
                          M       endif
                          M PREV_BANK = 3
                          M     endif
                          M     if (((0)   & 1) == 1)
                          M         bsf     ((GPIO) + 80h), 000h
                          M     else
0061   1005               M         bcf     ((GPIO) + 80h), 000h
                          M     endif
                      00168 
                      00169 ; C:\USERS\CALZONTZIN\DESKTOP\DISPOSITIVO STAR3 PIC12F629\DISPOSITIVO BAR PIC12F629.PBP 00036       write $00,1
                      00170         WRITEADDRESS?C  000h
                          M         MOVE?CB 000h, EEADR
                          M         CHK?RP  EEADR
                          M     if (((EEADR) & 180h) == 0)
                          M       if (PREV_BANK == 1)
                          M         bcf     STATUS, RP0
                          M       endif
                          M       if (PREV_BANK == 2)
                          M         bcf     STATUS, RP1
                          M       endif
                          M       if (PREV_BANK == 3)
                          M         bcf     STATUS, RP0
MPASM 5.62     DISPOSITIVO BAR PIC12F629.ASM   10-4-2016  16:08:13         PAGE 35


LOC  OBJECT CODE     LINE SOURCE TEXT
  VALUE

                          M         bcf     STATUS, RP1
                          M       endif
                          M PREV_BANK = 0
                          M     endif
                          M 
                          M     if (((EEADR) & 180h) == 80h)
                          M       if (PREV_BANK == 0)
                          M         bsf     STATUS, RP0
                          M       endif
                          M       if (PREV_BANK == 2)
                          M         bsf     STATUS, RP0
                          M         bcf     STATUS, RP1
                          M       endif
                          M       if (PREV_BANK == 3)
                          M         bcf     STATUS, RP1
                          M       endif
  00000001                M PREV_BANK = 1
                          M     endif
                          M 
                          M     if (((EEADR) & 180h) == 100h)
                          M       if (PREV_BANK == 0)
                          M         bsf     STATUS, RP1
                          M       endif
                          M       if (PREV_BANK == 1)
                          M         bcf     STATUS, RP0
                          M         bsf     STATUS, RP1
                          M       endif
                          M       if (PREV_BANK == 3)
                          M         bcf     STATUS, RP0
                          M       endif
                          M PREV_BANK = 2
                          M     endif
                          M 
                          M     if (((EEADR) & 180h) == 180h)
                          M       if (PREV_BANK == 0)
                          M         bsf     STATUS, RP0
                          M         bsf     STATUS, RP1
                          M       endif
                          M       if (PREV_BANK == 1)
                          M         bsf     STATUS, RP1
                          M       endif
                          M       if (PREV_BANK == 2)
                          M         bsf     STATUS, RP0
                          M       endif
                          M PREV_BANK = 3
                          M     endif
                          M     if (low (000h) == 0)
0062   019B               M         clrf    EEADR
                          M     else
                          M         movlw   low (000h)
                          M         movwf   EEADR
                          M     endif
                      00171         WRITE?C 001h
MPASM 5.62     DISPOSITIVO BAR PIC12F629.ASM   10-4-2016  16:08:13         PAGE 36


LOC  OBJECT CODE     LINE SOURCE TEXT
  VALUE

0063   3001               M         movlw   001h
                          M         L?CALL  WRITE
                          M         RST?RP
                          M     if ((PREV_BANK & 1) != 0)
0064   1283               M         bcf     STATUS, RP0
                          M     endif
                          M     if ((PREV_BANK & 2) != 0)
                          M         bcf     STATUS, RP1
                          M     endif
  00000000                M PREV_BANK = 0
                          M 
                          M     ifdef USE_LINKER
                          M       if (CODE_SIZE > 2)
                          M         pagesel WRITE
                          M       endif
                          M     else
                          M       if ((WRITE) < 1)
                          M         if (CODE_SIZE > 2)
                          M           if (((WRITE) & 800h) == 0)
                          M         bcf     PCLATH, 3
                          M         else
                          M         bsf     PCLATH, 3
                          M         endif
                          M         endif
                          M         if (CODE_SIZE > 4)
                          M           if (((WRITE) & 1000h) == 0)
                          M         bcf     PCLATH, 4
                          M           else
                          M         bsf     PCLATH, 4
                          M           endif
                          M         endif
                          M       else
                          M         if ((WRITE) > $)
                          M           if (CODE_SIZE > 2)
                          M             if (((WRITE) & 800h) == 0)
                          M         bcf     PCLATH, 3
                          M             else
                          M         bsf     PCLATH, 3
                          M             endif
                          M           endif
                          M           if (CODE_SIZE > 4)
                          M             if (((WRITE) & 1000h) == 0)
                          M         bcf     PCLATH, 4
                          M             else
                          M         bsf     PCLATH, 4
                          M             endif
                          M           endif
                          M         else
                          M           if (CODE_SIZE > 2)
                          M             if (((WRITE) & 1800h) == 0)
                          M         clrf    PCLATH
                          M             else
                          M               if (((WRITE) & 800h) == 0)
MPASM 5.62     DISPOSITIVO BAR PIC12F629.ASM   10-4-2016  16:08:13         PAGE 37


LOC  OBJECT CODE     LINE SOURCE TEXT
  VALUE

                          M         bcf     PCLATH, 3
                          M               else
                          M         bsf     PCLATH, 3
                          M               endif
                          M               if (CODE_SIZE > 4)
                          M                 if (((WRITE) & 1000h) == 0)
                          M         bcf     PCLATH, 4
                          M                 else
                          M         bsf     PCLATH, 4
                          M                 endif   
                          M               endif
                          M             endif
                          M           endif
                          M         endif
                          M       endif
                          M     endif
                          M 
0065   2008               M         call    WRITE
                      00172 
                      00173 ; C:\USERS\CALZONTZIN\DESKTOP\DISPOSITIVO STAR3 PIC12F629\DISPOSITIVO BAR PIC12F629.PBP 00037       read $00,mem
                      00174         READADDRESS?C   000h
                          M         MOVE?CB 000h, EEADR
                          M         CHK?RP  EEADR
                          M     if (((EEADR) & 180h) == 0)
                          M       if (PREV_BANK == 1)
                          M         bcf     STATUS, RP0
                          M       endif
                          M       if (PREV_BANK == 2)
                          M         bcf     STATUS, RP1
                          M       endif
                          M       if (PREV_BANK == 3)
                          M         bcf     STATUS, RP0
                          M         bcf     STATUS, RP1
                          M       endif
                          M PREV_BANK = 0
                          M     endif
                          M 
                          M     if (((EEADR) & 180h) == 80h)
                          M       if (PREV_BANK == 0)
0066   1683               M         bsf     STATUS, RP0
                          M       endif
                          M       if (PREV_BANK == 2)
                          M         bsf     STATUS, RP0
                          M         bcf     STATUS, RP1
                          M       endif
                          M       if (PREV_BANK == 3)
                          M         bcf     STATUS, RP1
                          M       endif
  00000001                M PREV_BANK = 1
                          M     endif
                          M 
                          M     if (((EEADR) & 180h) == 100h)
                          M       if (PREV_BANK == 0)
MPASM 5.62     DISPOSITIVO BAR PIC12F629.ASM   10-4-2016  16:08:13         PAGE 38


LOC  OBJECT CODE     LINE SOURCE TEXT
  VALUE

                          M         bsf     STATUS, RP1
                          M       endif
                          M       if (PREV_BANK == 1)
                          M         bcf     STATUS, RP0
                          M         bsf     STATUS, RP1
                          M       endif
                          M       if (PREV_BANK == 3)
                          M         bcf     STATUS, RP0
                          M       endif
                          M PREV_BANK = 2
                          M     endif
                          M 
                          M     if (((EEADR) & 180h) == 180h)
                          M       if (PREV_BANK == 0)
                          M         bsf     STATUS, RP0
                          M         bsf     STATUS, RP1
                          M       endif
                          M       if (PREV_BANK == 1)
                          M         bsf     STATUS, RP1
                          M       endif
                          M       if (PREV_BANK == 2)
                          M         bsf     STATUS, RP0
                          M       endif
                          M PREV_BANK = 3
                          M     endif
                          M     if (low (000h) == 0)
0067   019B               M         clrf    EEADR
                          M     else
                          M         movlw   low (000h)
                          M         movwf   EEADR
                          M     endif
                      00175         READ?B  _mem
                          M         L?CALL  READ
                          M         RST?RP
                          M     if ((PREV_BANK & 1) != 0)
0068   1283               M         bcf     STATUS, RP0
                          M     endif
                          M     if ((PREV_BANK & 2) != 0)
                          M         bcf     STATUS, RP1
                          M     endif
  00000000                M PREV_BANK = 0
                          M 
                          M     ifdef USE_LINKER
                          M       if (CODE_SIZE > 2)
                          M         pagesel READ
                          M       endif
                          M     else
                          M       if ((READ)  < 1)
                          M         if (CODE_SIZE > 2)
                          M           if (((READ)  & 800h) == 0)
                          M         bcf     PCLATH, 3
                          M         else
                          M         bsf     PCLATH, 3
MPASM 5.62     DISPOSITIVO BAR PIC12F629.ASM   10-4-2016  16:08:13         PAGE 39


LOC  OBJECT CODE     LINE SOURCE TEXT
  VALUE

                          M         endif
                          M         endif
                          M         if (CODE_SIZE > 4)
                          M           if (((READ)  & 1000h) == 0)
                          M         bcf     PCLATH, 4
                          M           else
                          M         bsf     PCLATH, 4
                          M           endif
                          M         endif
                          M       else
                          M         if ((READ)  > $)
                          M           if (CODE_SIZE > 2)
                          M             if (((READ)  & 800h) == 0)
                          M         bcf     PCLATH, 3
                          M             else
                          M         bsf     PCLATH, 3
                          M             endif
                          M           endif
                          M           if (CODE_SIZE > 4)
                          M             if (((READ)  & 1000h) == 0)
                          M         bcf     PCLATH, 4
                          M             else
                          M         bsf     PCLATH, 4
                          M             endif
                          M           endif
                          M         else
                          M           if (CODE_SIZE > 2)
                          M             if (((READ)  & 1800h) == 0)
                          M         clrf    PCLATH
                          M             else
                          M               if (((READ)  & 800h) == 0)
                          M         bcf     PCLATH, 3
                          M               else
                          M         bsf     PCLATH, 3
                          M               endif
                          M               if (CODE_SIZE > 4)
                          M                 if (((READ)  & 1000h) == 0)
                          M         bcf     PCLATH, 4
                          M                 else
                          M         bsf     PCLATH, 4
                          M                 endif   
                          M               endif
                          M             endif
                          M           endif
                          M         endif
                          M       endif
                          M     endif
                          M 
0069   2001               M         call    READ
                          M         MOVE?AB _mem
                          M         CHK?RP  _mem
                          M     if (((_mem)  & 180h) == 0)
                          M       if (PREV_BANK == 1)
MPASM 5.62     DISPOSITIVO BAR PIC12F629.ASM   10-4-2016  16:08:13         PAGE 40


LOC  OBJECT CODE     LINE SOURCE TEXT
  VALUE

                          M         bcf     STATUS, RP0
                          M       endif
                          M       if (PREV_BANK == 2)
                          M         bcf     STATUS, RP1
                          M       endif
                          M       if (PREV_BANK == 3)
                          M         bcf     STATUS, RP0
                          M         bcf     STATUS, RP1
                          M       endif
  00000000                M PREV_BANK = 0
                          M     endif
                          M 
                          M     if (((_mem)  & 180h) == 80h)
                          M       if (PREV_BANK == 0)
                          M         bsf     STATUS, RP0
                          M       endif
                          M       if (PREV_BANK == 2)
                          M         bsf     STATUS, RP0
                          M         bcf     STATUS, RP1
                          M       endif
                          M       if (PREV_BANK == 3)
                          M         bcf     STATUS, RP1
                          M       endif
                          M PREV_BANK = 1
                          M     endif
                          M 
                          M     if (((_mem)  & 180h) == 100h)
                          M       if (PREV_BANK == 0)
                          M         bsf     STATUS, RP1
                          M       endif
                          M       if (PREV_BANK == 1)
                          M         bcf     STATUS, RP0
                          M         bsf     STATUS, RP1
                          M       endif
                          M       if (PREV_BANK == 3)
                          M         bcf     STATUS, RP0
                          M       endif
                          M PREV_BANK = 2
                          M     endif
                          M 
                          M     if (((_mem)  & 180h) == 180h)
                          M       if (PREV_BANK == 0)
                          M         bsf     STATUS, RP0
                          M         bsf     STATUS, RP1
                          M       endif
                          M       if (PREV_BANK == 1)
                          M         bsf     STATUS, RP1
                          M       endif
                          M       if (PREV_BANK == 2)
                          M         bsf     STATUS, RP0
                          M       endif
                          M PREV_BANK = 3
                          M     endif
MPASM 5.62     DISPOSITIVO BAR PIC12F629.ASM   10-4-2016  16:08:13         PAGE 41


LOC  OBJECT CODE     LINE SOURCE TEXT
  VALUE

006A   00B9               M         movwf   _mem
                      00176 
                      00177 ; C:\USERS\CALZONTZIN\DESKTOP\DISPOSITIVO STAR3 PIC12F629\DISPOSITIVO BAR PIC12F629.PBP 00038       return
                      00178         RETURN? 
                          M     ifdef DEBUG_STACK
                          M         CHK?RP  DEBUG_STACK
                          M         decf    DEBUG_STACK, F
                          M     endif
                          M         RST?RP
                          M     if ((PREV_BANK & 1) != 0)
                          M         bcf     STATUS, RP0
                          M     endif
                          M     if ((PREV_BANK & 2) != 0)
                          M         bcf     STATUS, RP1
                          M     endif
  00000000                M PREV_BANK = 0
006B   0008               M         return
                      00179 
                      00180 ; C:\USERS\CALZONTZIN\DESKTOP\DISPOSITIVO STAR3 PIC12F629\DISPOSITIVO BAR PIC12F629.PBP 00040    btnbar:
                      00181 
                      00182         LABEL?L _btnbar 
                          M         RST?RP
                          M     if ((PREV_BANK & 1) != 0)
                          M         bcf     STATUS, RP0
                          M     endif
                          M     if ((PREV_BANK & 2) != 0)
                          M         bcf     STATUS, RP1
                          M     endif
  00000000                M PREV_BANK = 0
                          M     ifdef PM_USED
                          M         LALL
                          M _btnbar
                          M         XALL
                          M     else
006C                      M _btnbar
                          M     endif
                      00183 
                      00184 ; C:\USERS\CALZONTZIN\DESKTOP\DISPOSITIVO STAR3 PIC12F629\DISPOSITIVO BAR PIC12F629.PBP 00041       if mem=0 then return
                      00185         CMPNE?BCL       _mem, 000h, L00007
                          M     if (((000h) > -100h) & ((000h) < 100h))
                          M         CLRWDT?
                          M     ifndef NO_CLRWDT
006C   0064               M         clrwdt
                          M     endif
                          M         MOVE?BA _mem
                          M         CHK?RP  _mem
                          M     if (((_mem)  & 180h) == 0)
                          M       if (PREV_BANK == 1)
                          M         bcf     STATUS, RP0
                          M       endif
                          M       if (PREV_BANK == 2)
                          M         bcf     STATUS, RP1
                          M       endif
MPASM 5.62     DISPOSITIVO BAR PIC12F629.ASM   10-4-2016  16:08:13         PAGE 42


LOC  OBJECT CODE     LINE SOURCE TEXT
  VALUE

                          M       if (PREV_BANK == 3)
                          M         bcf     STATUS, RP0
                          M         bcf     STATUS, RP1
                          M       endif
  00000000                M PREV_BANK = 0
                          M     endif
                          M 
                          M     if (((_mem)  & 180h) == 80h)
                          M       if (PREV_BANK == 0)
                          M         bsf     STATUS, RP0
                          M       endif
                          M       if (PREV_BANK == 2)
                          M         bsf     STATUS, RP0
                          M         bcf     STATUS, RP1
                          M       endif
                          M       if (PREV_BANK == 3)
                          M         bcf     STATUS, RP1
                          M       endif
                          M PREV_BANK = 1
                          M     endif
                          M 
                          M     if (((_mem)  & 180h) == 100h)
                          M       if (PREV_BANK == 0)
                          M         bsf     STATUS, RP1
                          M       endif
                          M       if (PREV_BANK == 1)
                          M         bcf     STATUS, RP0
                          M         bsf     STATUS, RP1
                          M       endif
                          M       if (PREV_BANK == 3)
                          M         bcf     STATUS, RP0
                          M       endif
                          M PREV_BANK = 2
                          M     endif
                          M 
                          M     if (((_mem)  & 180h) == 180h)
                          M       if (PREV_BANK == 0)
                          M         bsf     STATUS, RP0
                          M         bsf     STATUS, RP1
                          M       endif
                          M       if (PREV_BANK == 1)
                          M         bsf     STATUS, RP1
                          M       endif
                          M       if (PREV_BANK == 2)
                          M         bsf     STATUS, RP0
                          M       endif
                          M PREV_BANK = 3
                          M     endif
006D   0839               M         movf    _mem, W
006E   3C00               M         sublw   000h
                          M         BIT?GOTO 0, STATUS, Z, L00007
                          M     ifdef USE_LINKER
                          M         CLRWDT?
MPASM 5.62     DISPOSITIVO BAR PIC12F629.ASM   10-4-2016  16:08:13         PAGE 43


LOC  OBJECT CODE     LINE SOURCE TEXT
  VALUE

                          M     else
                          M       if ($ == (L00007))
                          M         CLRWDT?
                          M       endif
                          M     endif
                          M 
                          M     ifdef USE_LINKER
                          M       if (CODE_SIZE > 2)
                          M         pagesel L00007
                          M       endif
                          M     else
                          M       if (CODE_SIZE > 2)
                          M         if (((L00007) & 800h) == 0)
                          M         bcf     PCLATH, 3
                          M         else
                          M         bsf     PCLATH, 3
                          M         endif
                          M       endif
                          M       if (CODE_SIZE > 4)
                          M         if (((L00007) & 1000h) == 0)
                          M         bcf     PCLATH, 4
                          M         else
                          M         bsf     PCLATH, 4
                          M         endif
                          M       endif
                          M     endif
                          M 
                          M     if (((STATUS) & 0ff80h) != 0)
                          M         CHK?RP  STATUS
                          M         bcf     STATUS, DC
                          M       if ((0)      == 0)
                          M         btfss   STATUS, Z
                          M       else
                          M         btfsc   STATUS, Z
                          M       endif
                          M         bsf     STATUS, DC
                          M         RST?RP
                          M         btfsc   STATUS, DC
                          M     else
                          M         RST?RP
                          M     if ((PREV_BANK & 1) != 0)
                          M         bcf     STATUS, RP0
                          M     endif
                          M     if ((PREV_BANK & 2) != 0)
                          M         bcf     STATUS, RP1
                          M     endif
  00000000                M PREV_BANK = 0
                          M       if ((0)      == 0)
006F   1D03               M         btfss   STATUS, Z
                          M       else
                          M         btfsc   STATUS, Z
                          M       endif
                          M     endif
MPASM 5.62     DISPOSITIVO BAR PIC12F629.ASM   10-4-2016  16:08:13         PAGE 44


LOC  OBJECT CODE     LINE SOURCE TEXT
  VALUE

                          M 
0070   2872               M         goto    L00007
                          M     else
                          M         L?GOTO  L00007
                          M     endif
                      00186         RETURN? 
                          M     ifdef DEBUG_STACK
                          M         CHK?RP  DEBUG_STACK
                          M         decf    DEBUG_STACK, F
                          M     endif
                          M         RST?RP
                          M     if ((PREV_BANK & 1) != 0)
                          M         bcf     STATUS, RP0
                          M     endif
                          M     if ((PREV_BANK & 2) != 0)
                          M         bcf     STATUS, RP1
                          M     endif
  00000000                M PREV_BANK = 0
0071   0008               M         return
                      00187         LABEL?L L00007  
                          M         RST?RP
                          M     if ((PREV_BANK & 1) != 0)
                          M         bcf     STATUS, RP0
                          M     endif
                          M     if ((PREV_BANK & 2) != 0)
                          M         bcf     STATUS, RP1
                          M     endif
  00000000                M PREV_BANK = 0
                          M     ifdef PM_USED
                          M         LALL
                          M L00007
                          M         XALL
                          M     else
0072                      M L00007
                          M     endif
                      00188 
                      00189 ; C:\USERS\CALZONTZIN\DESKTOP\DISPOSITIVO STAR3 PIC12F629\DISPOSITIVO BAR PIC12F629.PBP 00042       high barled
                      00190         HIGH?T  _barled
                          M         MOVE?CT 1, GPIO,  002h
                          M         CHK?RP  GPIO
                          M     if (((GPIO)  & 180h) == 0)
                          M       if (PREV_BANK == 1)
                          M         bcf     STATUS, RP0
                          M       endif
                          M       if (PREV_BANK == 2)
                          M         bcf     STATUS, RP1
                          M       endif
                          M       if (PREV_BANK == 3)
                          M         bcf     STATUS, RP0
                          M         bcf     STATUS, RP1
                          M       endif
  00000000                M PREV_BANK = 0
                          M     endif
MPASM 5.62     DISPOSITIVO BAR PIC12F629.ASM   10-4-2016  16:08:13         PAGE 45


LOC  OBJECT CODE     LINE SOURCE TEXT
  VALUE

                          M 
                          M     if (((GPIO)  & 180h) == 80h)
                          M       if (PREV_BANK == 0)
                          M         bsf     STATUS, RP0
                          M       endif
                          M       if (PREV_BANK == 2)
                          M         bsf     STATUS, RP0
                          M         bcf     STATUS, RP1
                          M       endif
                          M       if (PREV_BANK == 3)
                          M         bcf     STATUS, RP1
                          M       endif
                          M PREV_BANK = 1
                          M     endif
                          M 
                          M     if (((GPIO)  & 180h) == 100h)
                          M       if (PREV_BANK == 0)
                          M         bsf     STATUS, RP1
                          M       endif
                          M       if (PREV_BANK == 1)
                          M         bcf     STATUS, RP0
                          M         bsf     STATUS, RP1
                          M       endif
                          M       if (PREV_BANK == 3)
                          M         bcf     STATUS, RP0
                          M       endif
                          M PREV_BANK = 2
                          M     endif
                          M 
                          M     if (((GPIO)  & 180h) == 180h)
                          M       if (PREV_BANK == 0)
                          M         bsf     STATUS, RP0
                          M         bsf     STATUS, RP1
                          M       endif
                          M       if (PREV_BANK == 1)
                          M         bsf     STATUS, RP1
                          M       endif
                          M       if (PREV_BANK == 2)
                          M         bsf     STATUS, RP0
                          M       endif
                          M PREV_BANK = 3
                          M     endif
                          M     if (((1)   & 1) == 1)
0072   1505               M         bsf     GPIO,   002h
                          M     else
                          M         bcf     GPIO,   002h
                          M     endif
                          M         MOVE?CT 0, ((GPIO)  + 80h), 002h
                          M         CHK?RP  ((GPIO) + 80h)
                          M     if (((((GPIO) + 80h)) & 180h) == 0)
                          M       if (PREV_BANK == 1)
                          M         bcf     STATUS, RP0
                          M       endif
MPASM 5.62     DISPOSITIVO BAR PIC12F629.ASM   10-4-2016  16:08:13         PAGE 46


LOC  OBJECT CODE     LINE SOURCE TEXT
  VALUE

                          M       if (PREV_BANK == 2)
                          M         bcf     STATUS, RP1
                          M       endif
                          M       if (PREV_BANK == 3)
                          M         bcf     STATUS, RP0
                          M         bcf     STATUS, RP1
                          M       endif
                          M PREV_BANK = 0
                          M     endif
                          M 
                          M     if (((((GPIO) + 80h)) & 180h) == 80h)
                          M       if (PREV_BANK == 0)
0073   1683               M         bsf     STATUS, RP0
                          M       endif
                          M       if (PREV_BANK == 2)
                          M         bsf     STATUS, RP0
                          M         bcf     STATUS, RP1
                          M       endif
                          M       if (PREV_BANK == 3)
                          M         bcf     STATUS, RP1
                          M       endif
  00000001                M PREV_BANK = 1
                          M     endif
                          M 
                          M     if (((((GPIO) + 80h)) & 180h) == 100h)
                          M       if (PREV_BANK == 0)
                          M         bsf     STATUS, RP1
                          M       endif
                          M       if (PREV_BANK == 1)
                          M         bcf     STATUS, RP0
                          M         bsf     STATUS, RP1
                          M       endif
                          M       if (PREV_BANK == 3)
                          M         bcf     STATUS, RP0
                          M       endif
                          M PREV_BANK = 2
                          M     endif
                          M 
                          M     if (((((GPIO) + 80h)) & 180h) == 180h)
                          M       if (PREV_BANK == 0)
                          M         bsf     STATUS, RP0
                          M         bsf     STATUS, RP1
                          M       endif
                          M       if (PREV_BANK == 1)
                          M         bsf     STATUS, RP1
                          M       endif
                          M       if (PREV_BANK == 2)
                          M         bsf     STATUS, RP0
                          M       endif
                          M PREV_BANK = 3
                          M     endif
                          M     if (((0)   & 1) == 1)
                          M         bsf     ((GPIO) + 80h), 002h
MPASM 5.62     DISPOSITIVO BAR PIC12F629.ASM   10-4-2016  16:08:13         PAGE 47


LOC  OBJECT CODE     LINE SOURCE TEXT
  VALUE

                          M     else
0074   1105               M         bcf     ((GPIO) + 80h), 002h
                          M     endif
                      00191 
                      00192 ; C:\USERS\CALZONTZIN\DESKTOP\DISPOSITIVO STAR3 PIC12F629\DISPOSITIVO BAR PIC12F629.PBP 00043       pause 500
                      00193         PAUSE?C 001F4h
                          M     if (((001F4h) >> 8) == 0)
                          M         MOVE?CA 001F4h
                          M         L?CALL  PAUSE
                          M     else
                          M         MOVE?CB (001F4h) >> 8, R1 + 1
                          M         CHK?RP  R1 + 1
                          M     if (((R1 + 1) & 180h) == 0)
                          M       if (PREV_BANK == 1)
0075   1283               M         bcf     STATUS, RP0
                          M       endif
                          M       if (PREV_BANK == 2)
                          M         bcf     STATUS, RP1
                          M       endif
                          M       if (PREV_BANK == 3)
                          M         bcf     STATUS, RP0
                          M         bcf     STATUS, RP1
                          M       endif
  00000000                M PREV_BANK = 0
                          M     endif
                          M 
                          M     if (((R1 + 1) & 180h) == 80h)
                          M       if (PREV_BANK == 0)
                          M         bsf     STATUS, RP0
                          M       endif
                          M       if (PREV_BANK == 2)
                          M         bsf     STATUS, RP0
                          M         bcf     STATUS, RP1
                          M       endif
                          M       if (PREV_BANK == 3)
                          M         bcf     STATUS, RP1
                          M       endif
                          M PREV_BANK = 1
                          M     endif
                          M 
                          M     if (((R1 + 1) & 180h) == 100h)
                          M       if (PREV_BANK == 0)
                          M         bsf     STATUS, RP1
                          M       endif
                          M       if (PREV_BANK == 1)
                          M         bcf     STATUS, RP0
                          M         bsf     STATUS, RP1
                          M       endif
                          M       if (PREV_BANK == 3)
                          M         bcf     STATUS, RP0
                          M       endif
                          M PREV_BANK = 2
                          M     endif
MPASM 5.62     DISPOSITIVO BAR PIC12F629.ASM   10-4-2016  16:08:13         PAGE 48


LOC  OBJECT CODE     LINE SOURCE TEXT
  VALUE

                          M 
                          M     if (((R1 + 1) & 180h) == 180h)
                          M       if (PREV_BANK == 0)
                          M         bsf     STATUS, RP0
                          M         bsf     STATUS, RP1
                          M       endif
                          M       if (PREV_BANK == 1)
                          M         bsf     STATUS, RP1
                          M       endif
                          M       if (PREV_BANK == 2)
                          M         bsf     STATUS, RP0
                          M       endif
                          M PREV_BANK = 3
                          M     endif
                          M     if (low ((001F4h) >> 8) == 0)
                          M         clrf    R1 + 1
                          M     else
0076   3001               M         movlw   low ((001F4h) >> 8)
0077   00A3               M         movwf   R1 + 1
                          M     endif
                          M         MOVE?CA low (001F4h)
0078   30F4               M         movlw   low (low (001F4h))
                          M         L?CALL  PAUSEL
                          M         RST?RP
                          M     if ((PREV_BANK & 1) != 0)
                          M         bcf     STATUS, RP0
                          M     endif
                          M     if ((PREV_BANK & 2) != 0)
                          M         bcf     STATUS, RP1
                          M     endif
  00000000                M PREV_BANK = 0
                          M 
                          M     ifdef USE_LINKER
                          M       if (CODE_SIZE > 2)
                          M         pagesel PAUSEL
                          M       endif
                          M     else
                          M       if ((PAUSEL) < 1)
                          M         if (CODE_SIZE > 2)
                          M           if (((PAUSEL) & 800h) == 0)
                          M         bcf     PCLATH, 3
                          M         else
                          M         bsf     PCLATH, 3
                          M         endif
                          M         endif
                          M         if (CODE_SIZE > 4)
                          M           if (((PAUSEL) & 1000h) == 0)
                          M         bcf     PCLATH, 4
                          M           else
                          M         bsf     PCLATH, 4
                          M           endif
                          M         endif
                          M       else
MPASM 5.62     DISPOSITIVO BAR PIC12F629.ASM   10-4-2016  16:08:13         PAGE 49


LOC  OBJECT CODE     LINE SOURCE TEXT
  VALUE

                          M         if ((PAUSEL) > $)
                          M           if (CODE_SIZE > 2)
                          M             if (((PAUSEL) & 800h) == 0)
                          M         bcf     PCLATH, 3
                          M             else
                          M         bsf     PCLATH, 3
                          M             endif
                          M           endif
                          M           if (CODE_SIZE > 4)
                          M             if (((PAUSEL) & 1000h) == 0)
                          M         bcf     PCLATH, 4
                          M             else
                          M         bsf     PCLATH, 4
                          M             endif
                          M           endif
                          M         else
                          M           if (CODE_SIZE > 2)
                          M             if (((PAUSEL) & 1800h) == 0)
                          M         clrf    PCLATH
                          M             else
                          M               if (((PAUSEL) & 800h) == 0)
                          M         bcf     PCLATH, 3
                          M               else
                          M         bsf     PCLATH, 3
                          M               endif
                          M               if (CODE_SIZE > 4)
                          M                 if (((PAUSEL) & 1000h) == 0)
                          M         bcf     PCLATH, 4
                          M                 else
                          M         bsf     PCLATH, 4
                          M                 endif   
                          M               endif
                          M             endif
                          M           endif
                          M         endif
                          M       endif
                          M     endif
                          M 
0079   2016               M         call    PAUSEL
                          M     endif
                      00194 
                      00195 ; C:\USERS\CALZONTZIN\DESKTOP\DISPOSITIVO STAR3 PIC12F629\DISPOSITIVO BAR PIC12F629.PBP 00044       low barled
                      00196         LOW?T   _barled
                          M         MOVE?CT 0, GPIO,  002h
                          M         CHK?RP  GPIO
                          M     if (((GPIO)  & 180h) == 0)
                          M       if (PREV_BANK == 1)
                          M         bcf     STATUS, RP0
                          M       endif
                          M       if (PREV_BANK == 2)
                          M         bcf     STATUS, RP1
                          M       endif
                          M       if (PREV_BANK == 3)
MPASM 5.62     DISPOSITIVO BAR PIC12F629.ASM   10-4-2016  16:08:13         PAGE 50


LOC  OBJECT CODE     LINE SOURCE TEXT
  VALUE

                          M         bcf     STATUS, RP0
                          M         bcf     STATUS, RP1
                          M       endif
  00000000                M PREV_BANK = 0
                          M     endif
                          M 
                          M     if (((GPIO)  & 180h) == 80h)
                          M       if (PREV_BANK == 0)
                          M         bsf     STATUS, RP0
                          M       endif
                          M       if (PREV_BANK == 2)
                          M         bsf     STATUS, RP0
                          M         bcf     STATUS, RP1
                          M       endif
                          M       if (PREV_BANK == 3)
                          M         bcf     STATUS, RP1
                          M       endif
                          M PREV_BANK = 1
                          M     endif
                          M 
                          M     if (((GPIO)  & 180h) == 100h)
                          M       if (PREV_BANK == 0)
                          M         bsf     STATUS, RP1
                          M       endif
                          M       if (PREV_BANK == 1)
                          M         bcf     STATUS, RP0
                          M         bsf     STATUS, RP1
                          M       endif
                          M       if (PREV_BANK == 3)
                          M         bcf     STATUS, RP0
                          M       endif
                          M PREV_BANK = 2
                          M     endif
                          M 
                          M     if (((GPIO)  & 180h) == 180h)
                          M       if (PREV_BANK == 0)
                          M         bsf     STATUS, RP0
                          M         bsf     STATUS, RP1
                          M       endif
                          M       if (PREV_BANK == 1)
                          M         bsf     STATUS, RP1
                          M       endif
                          M       if (PREV_BANK == 2)
                          M         bsf     STATUS, RP0
                          M       endif
                          M PREV_BANK = 3
                          M     endif
                          M     if (((0)   & 1) == 1)
                          M         bsf     GPIO,   002h
                          M     else
007A   1105               M         bcf     GPIO,   002h
                          M     endif
                          M         MOVE?CT 0, ((GPIO)  + 80h), 002h
MPASM 5.62     DISPOSITIVO BAR PIC12F629.ASM   10-4-2016  16:08:13         PAGE 51


LOC  OBJECT CODE     LINE SOURCE TEXT
  VALUE

                          M         CHK?RP  ((GPIO) + 80h)
                          M     if (((((GPIO) + 80h)) & 180h) == 0)
                          M       if (PREV_BANK == 1)
                          M         bcf     STATUS, RP0
                          M       endif
                          M       if (PREV_BANK == 2)
                          M         bcf     STATUS, RP1
                          M       endif
                          M       if (PREV_BANK == 3)
                          M         bcf     STATUS, RP0
                          M         bcf     STATUS, RP1
                          M       endif
                          M PREV_BANK = 0
                          M     endif
                          M 
                          M     if (((((GPIO) + 80h)) & 180h) == 80h)
                          M       if (PREV_BANK == 0)
007B   1683               M         bsf     STATUS, RP0
                          M       endif
                          M       if (PREV_BANK == 2)
                          M         bsf     STATUS, RP0
                          M         bcf     STATUS, RP1
                          M       endif
                          M       if (PREV_BANK == 3)
                          M         bcf     STATUS, RP1
                          M       endif
  00000001                M PREV_BANK = 1
                          M     endif
                          M 
                          M     if (((((GPIO) + 80h)) & 180h) == 100h)
                          M       if (PREV_BANK == 0)
                          M         bsf     STATUS, RP1
                          M       endif
                          M       if (PREV_BANK == 1)
                          M         bcf     STATUS, RP0
                          M         bsf     STATUS, RP1
                          M       endif
                          M       if (PREV_BANK == 3)
                          M         bcf     STATUS, RP0
                          M       endif
                          M PREV_BANK = 2
                          M     endif
                          M 
                          M     if (((((GPIO) + 80h)) & 180h) == 180h)
                          M       if (PREV_BANK == 0)
                          M         bsf     STATUS, RP0
                          M         bsf     STATUS, RP1
                          M       endif
                          M       if (PREV_BANK == 1)
                          M         bsf     STATUS, RP1
                          M       endif
                          M       if (PREV_BANK == 2)
                          M         bsf     STATUS, RP0
MPASM 5.62     DISPOSITIVO BAR PIC12F629.ASM   10-4-2016  16:08:13         PAGE 52


LOC  OBJECT CODE     LINE SOURCE TEXT
  VALUE

                          M       endif
                          M PREV_BANK = 3
                          M     endif
                          M     if (((0)   & 1) == 1)
                          M         bsf     ((GPIO) + 80h), 002h
                          M     else
007C   1105               M         bcf     ((GPIO) + 80h), 002h
                          M     endif
                      00197 
                      00198 ; C:\USERS\CALZONTZIN\DESKTOP\DISPOSITIVO STAR3 PIC12F629\DISPOSITIVO BAR PIC12F629.PBP 00045       write $00,0
                      00199         WRITEADDRESS?C  000h
                          M         MOVE?CB 000h, EEADR
                          M         CHK?RP  EEADR
                          M     if (((EEADR) & 180h) == 0)
                          M       if (PREV_BANK == 1)
                          M         bcf     STATUS, RP0
                          M       endif
                          M       if (PREV_BANK == 2)
                          M         bcf     STATUS, RP1
                          M       endif
                          M       if (PREV_BANK == 3)
                          M         bcf     STATUS, RP0
                          M         bcf     STATUS, RP1
                          M       endif
                          M PREV_BANK = 0
                          M     endif
                          M 
                          M     if (((EEADR) & 180h) == 80h)
                          M       if (PREV_BANK == 0)
                          M         bsf     STATUS, RP0
                          M       endif
                          M       if (PREV_BANK == 2)
                          M         bsf     STATUS, RP0
                          M         bcf     STATUS, RP1
                          M       endif
                          M       if (PREV_BANK == 3)
                          M         bcf     STATUS, RP1
                          M       endif
  00000001                M PREV_BANK = 1
                          M     endif
                          M 
                          M     if (((EEADR) & 180h) == 100h)
                          M       if (PREV_BANK == 0)
                          M         bsf     STATUS, RP1
                          M       endif
                          M       if (PREV_BANK == 1)
                          M         bcf     STATUS, RP0
                          M         bsf     STATUS, RP1
                          M       endif
                          M       if (PREV_BANK == 3)
                          M         bcf     STATUS, RP0
                          M       endif
                          M PREV_BANK = 2
MPASM 5.62     DISPOSITIVO BAR PIC12F629.ASM   10-4-2016  16:08:13         PAGE 53


LOC  OBJECT CODE     LINE SOURCE TEXT
  VALUE

                          M     endif
                          M 
                          M     if (((EEADR) & 180h) == 180h)
                          M       if (PREV_BANK == 0)
                          M         bsf     STATUS, RP0
                          M         bsf     STATUS, RP1
                          M       endif
                          M       if (PREV_BANK == 1)
                          M         bsf     STATUS, RP1
                          M       endif
                          M       if (PREV_BANK == 2)
                          M         bsf     STATUS, RP0
                          M       endif
                          M PREV_BANK = 3
                          M     endif
                          M     if (low (000h) == 0)
007D   019B               M         clrf    EEADR
                          M     else
                          M         movlw   low (000h)
                          M         movwf   EEADR
                          M     endif
                      00200         WRITE?C 000h
007E   3000               M         movlw   000h
                          M         L?CALL  WRITE
                          M         RST?RP
                          M     if ((PREV_BANK & 1) != 0)
007F   1283               M         bcf     STATUS, RP0
                          M     endif
                          M     if ((PREV_BANK & 2) != 0)
                          M         bcf     STATUS, RP1
                          M     endif
  00000000                M PREV_BANK = 0
                          M 
                          M     ifdef USE_LINKER
                          M       if (CODE_SIZE > 2)
                          M         pagesel WRITE
                          M       endif
                          M     else
                          M       if ((WRITE) < 1)
                          M         if (CODE_SIZE > 2)
                          M           if (((WRITE) & 800h) == 0)
                          M         bcf     PCLATH, 3
                          M         else
                          M         bsf     PCLATH, 3
                          M         endif
                          M         endif
                          M         if (CODE_SIZE > 4)
                          M           if (((WRITE) & 1000h) == 0)
                          M         bcf     PCLATH, 4
                          M           else
                          M         bsf     PCLATH, 4
                          M           endif
                          M         endif
MPASM 5.62     DISPOSITIVO BAR PIC12F629.ASM   10-4-2016  16:08:13         PAGE 54


LOC  OBJECT CODE     LINE SOURCE TEXT
  VALUE

                          M       else
                          M         if ((WRITE) > $)
                          M           if (CODE_SIZE > 2)
                          M             if (((WRITE) & 800h) == 0)
                          M         bcf     PCLATH, 3
                          M             else
                          M         bsf     PCLATH, 3
                          M             endif
                          M           endif
                          M           if (CODE_SIZE > 4)
                          M             if (((WRITE) & 1000h) == 0)
                          M         bcf     PCLATH, 4
                          M             else
                          M         bsf     PCLATH, 4
                          M             endif
                          M           endif
                          M         else
                          M           if (CODE_SIZE > 2)
                          M             if (((WRITE) & 1800h) == 0)
                          M         clrf    PCLATH
                          M             else
                          M               if (((WRITE) & 800h) == 0)
                          M         bcf     PCLATH, 3
                          M               else
                          M         bsf     PCLATH, 3
                          M               endif
                          M               if (CODE_SIZE > 4)
                          M                 if (((WRITE) & 1000h) == 0)
                          M         bcf     PCLATH, 4
                          M                 else
                          M         bsf     PCLATH, 4
                          M                 endif   
                          M               endif
                          M             endif
                          M           endif
                          M         endif
                          M       endif
                          M     endif
                          M 
0080   2008               M         call    WRITE
                      00201 
                      00202 ; C:\USERS\CALZONTZIN\DESKTOP\DISPOSITIVO STAR3 PIC12F629\DISPOSITIVO BAR PIC12F629.PBP 00046       read $00,mem
                      00203         READADDRESS?C   000h
                          M         MOVE?CB 000h, EEADR
                          M         CHK?RP  EEADR
                          M     if (((EEADR) & 180h) == 0)
                          M       if (PREV_BANK == 1)
                          M         bcf     STATUS, RP0
                          M       endif
                          M       if (PREV_BANK == 2)
                          M         bcf     STATUS, RP1
                          M       endif
                          M       if (PREV_BANK == 3)
MPASM 5.62     DISPOSITIVO BAR PIC12F629.ASM   10-4-2016  16:08:13         PAGE 55


LOC  OBJECT CODE     LINE SOURCE TEXT
  VALUE

                          M         bcf     STATUS, RP0
                          M         bcf     STATUS, RP1
                          M       endif
                          M PREV_BANK = 0
                          M     endif
                          M 
                          M     if (((EEADR) & 180h) == 80h)
                          M       if (PREV_BANK == 0)
0081   1683               M         bsf     STATUS, RP0
                          M       endif
                          M       if (PREV_BANK == 2)
                          M         bsf     STATUS, RP0
                          M         bcf     STATUS, RP1
                          M       endif
                          M       if (PREV_BANK == 3)
                          M         bcf     STATUS, RP1
                          M       endif
  00000001                M PREV_BANK = 1
                          M     endif
                          M 
                          M     if (((EEADR) & 180h) == 100h)
                          M       if (PREV_BANK == 0)
                          M         bsf     STATUS, RP1
                          M       endif
                          M       if (PREV_BANK == 1)
                          M         bcf     STATUS, RP0
                          M         bsf     STATUS, RP1
                          M       endif
                          M       if (PREV_BANK == 3)
                          M         bcf     STATUS, RP0
                          M       endif
                          M PREV_BANK = 2
                          M     endif
                          M 
                          M     if (((EEADR) & 180h) == 180h)
                          M       if (PREV_BANK == 0)
                          M         bsf     STATUS, RP0
                          M         bsf     STATUS, RP1
                          M       endif
                          M       if (PREV_BANK == 1)
                          M         bsf     STATUS, RP1
                          M       endif
                          M       if (PREV_BANK == 2)
                          M         bsf     STATUS, RP0
                          M       endif
                          M PREV_BANK = 3
                          M     endif
                          M     if (low (000h) == 0)
0082   019B               M         clrf    EEADR
                          M     else
                          M         movlw   low (000h)
                          M         movwf   EEADR
                          M     endif
MPASM 5.62     DISPOSITIVO BAR PIC12F629.ASM   10-4-2016  16:08:13         PAGE 56


LOC  OBJECT CODE     LINE SOURCE TEXT
  VALUE

                      00204         READ?B  _mem
                          M         L?CALL  READ
                          M         RST?RP
                          M     if ((PREV_BANK & 1) != 0)
0083   1283               M         bcf     STATUS, RP0
                          M     endif
                          M     if ((PREV_BANK & 2) != 0)
                          M         bcf     STATUS, RP1
                          M     endif
  00000000                M PREV_BANK = 0
                          M 
                          M     ifdef USE_LINKER
                          M       if (CODE_SIZE > 2)
                          M         pagesel READ
                          M       endif
                          M     else
                          M       if ((READ)  < 1)
                          M         if (CODE_SIZE > 2)
                          M           if (((READ)  & 800h) == 0)
                          M         bcf     PCLATH, 3
                          M         else
                          M         bsf     PCLATH, 3
                          M         endif
                          M         endif
                          M         if (CODE_SIZE > 4)
                          M           if (((READ)  & 1000h) == 0)
                          M         bcf     PCLATH, 4
                          M           else
                          M         bsf     PCLATH, 4
                          M           endif
                          M         endif
                          M       else
                          M         if ((READ)  > $)
                          M           if (CODE_SIZE > 2)
                          M             if (((READ)  & 800h) == 0)
                          M         bcf     PCLATH, 3
                          M             else
                          M         bsf     PCLATH, 3
                          M             endif
                          M           endif
                          M           if (CODE_SIZE > 4)
                          M             if (((READ)  & 1000h) == 0)
                          M         bcf     PCLATH, 4
                          M             else
                          M         bsf     PCLATH, 4
                          M             endif
                          M           endif
                          M         else
                          M           if (CODE_SIZE > 2)
                          M             if (((READ)  & 1800h) == 0)
                          M         clrf    PCLATH
                          M             else
                          M               if (((READ)  & 800h) == 0)
MPASM 5.62     DISPOSITIVO BAR PIC12F629.ASM   10-4-2016  16:08:13         PAGE 57


LOC  OBJECT CODE     LINE SOURCE TEXT
  VALUE

                          M         bcf     PCLATH, 3
                          M               else
                          M         bsf     PCLATH, 3
                          M               endif
                          M               if (CODE_SIZE > 4)
                          M                 if (((READ)  & 1000h) == 0)
                          M         bcf     PCLATH, 4
                          M                 else
                          M         bsf     PCLATH, 4
                          M                 endif   
                          M               endif
                          M             endif
                          M           endif
                          M         endif
                          M       endif
                          M     endif
                          M 
0084   2001               M         call    READ
                          M         MOVE?AB _mem
                          M         CHK?RP  _mem
                          M     if (((_mem)  & 180h) == 0)
                          M       if (PREV_BANK == 1)
                          M         bcf     STATUS, RP0
                          M       endif
                          M       if (PREV_BANK == 2)
                          M         bcf     STATUS, RP1
                          M       endif
                          M       if (PREV_BANK == 3)
                          M         bcf     STATUS, RP0
                          M         bcf     STATUS, RP1
                          M       endif
  00000000                M PREV_BANK = 0
                          M     endif
                          M 
                          M     if (((_mem)  & 180h) == 80h)
                          M       if (PREV_BANK == 0)
                          M         bsf     STATUS, RP0
                          M       endif
                          M       if (PREV_BANK == 2)
                          M         bsf     STATUS, RP0
                          M         bcf     STATUS, RP1
                          M       endif
                          M       if (PREV_BANK == 3)
                          M         bcf     STATUS, RP1
                          M       endif
                          M PREV_BANK = 1
                          M     endif
                          M 
                          M     if (((_mem)  & 180h) == 100h)
                          M       if (PREV_BANK == 0)
                          M         bsf     STATUS, RP1
                          M       endif
                          M       if (PREV_BANK == 1)
MPASM 5.62     DISPOSITIVO BAR PIC12F629.ASM   10-4-2016  16:08:13         PAGE 58


LOC  OBJECT CODE     LINE SOURCE TEXT
  VALUE

                          M         bcf     STATUS, RP0
                          M         bsf     STATUS, RP1
                          M       endif
                          M       if (PREV_BANK == 3)
                          M         bcf     STATUS, RP0
                          M       endif
                          M PREV_BANK = 2
                          M     endif
                          M 
                          M     if (((_mem)  & 180h) == 180h)
                          M       if (PREV_BANK == 0)
                          M         bsf     STATUS, RP0
                          M         bsf     STATUS, RP1
                          M       endif
                          M       if (PREV_BANK == 1)
                          M         bsf     STATUS, RP1
                          M       endif
                          M       if (PREV_BANK == 2)
                          M         bsf     STATUS, RP0
                          M       endif
                          M PREV_BANK = 3
                          M     endif
0085   00B9               M         movwf   _mem
                      00205 
                      00206 ; C:\USERS\CALZONTZIN\DESKTOP\DISPOSITIVO STAR3 PIC12F629\DISPOSITIVO BAR PIC12F629.PBP 00047       return
                      00207         RETURN? 
                          M     ifdef DEBUG_STACK
                          M         CHK?RP  DEBUG_STACK
                          M         decf    DEBUG_STACK, F
                          M     endif
                          M         RST?RP
                          M     if ((PREV_BANK & 1) != 0)
                          M         bcf     STATUS, RP0
                          M     endif
                          M     if ((PREV_BANK & 2) != 0)
                          M         bcf     STATUS, RP1
                          M     endif
  00000000                M PREV_BANK = 0
0086   0008               M         return
                      00208 
                      00209 ; C:\USERS\CALZONTZIN\DESKTOP\DISPOSITIVO STAR3 PIC12F629\DISPOSITIVO BAR PIC12F629.PBP 00049    leemem:
                      00210 
                      00211         LABEL?L _leemem 
                          M         RST?RP
                          M     if ((PREV_BANK & 1) != 0)
                          M         bcf     STATUS, RP0
                          M     endif
                          M     if ((PREV_BANK & 2) != 0)
                          M         bcf     STATUS, RP1
                          M     endif
  00000000                M PREV_BANK = 0
                          M     ifdef PM_USED
                          M         LALL
MPASM 5.62     DISPOSITIVO BAR PIC12F629.ASM   10-4-2016  16:08:13         PAGE 59


LOC  OBJECT CODE     LINE SOURCE TEXT
  VALUE

                          M _leemem
                          M         XALL
                          M     else
0087                      M _leemem
                          M     endif
                      00212 
                      00213 ; C:\USERS\CALZONTZIN\DESKTOP\DISPOSITIVO STAR3 PIC12F629\DISPOSITIVO BAR PIC12F629.PBP 00050       read $00,mem
                      00214         READADDRESS?C   000h
                          M         MOVE?CB 000h, EEADR
                          M         CHK?RP  EEADR
                          M     if (((EEADR) & 180h) == 0)
                          M       if (PREV_BANK == 1)
                          M         bcf     STATUS, RP0
                          M       endif
                          M       if (PREV_BANK == 2)
                          M         bcf     STATUS, RP1
                          M       endif
                          M       if (PREV_BANK == 3)
                          M         bcf     STATUS, RP0
                          M         bcf     STATUS, RP1
                          M       endif
                          M PREV_BANK = 0
                          M     endif
                          M 
                          M     if (((EEADR) & 180h) == 80h)
                          M       if (PREV_BANK == 0)
0087   1683               M         bsf     STATUS, RP0
                          M       endif
                          M       if (PREV_BANK == 2)
                          M         bsf     STATUS, RP0
                          M         bcf     STATUS, RP1
                          M       endif
                          M       if (PREV_BANK == 3)
                          M         bcf     STATUS, RP1
                          M       endif
  00000001                M PREV_BANK = 1
                          M     endif
                          M 
                          M     if (((EEADR) & 180h) == 100h)
                          M       if (PREV_BANK == 0)
                          M         bsf     STATUS, RP1
                          M       endif
                          M       if (PREV_BANK == 1)
                          M         bcf     STATUS, RP0
                          M         bsf     STATUS, RP1
                          M       endif
                          M       if (PREV_BANK == 3)
                          M         bcf     STATUS, RP0
                          M       endif
                          M PREV_BANK = 2
                          M     endif
                          M 
                          M     if (((EEADR) & 180h) == 180h)
MPASM 5.62     DISPOSITIVO BAR PIC12F629.ASM   10-4-2016  16:08:13         PAGE 60


LOC  OBJECT CODE     LINE SOURCE TEXT
  VALUE

                          M       if (PREV_BANK == 0)
                          M         bsf     STATUS, RP0
                          M         bsf     STATUS, RP1
                          M       endif
                          M       if (PREV_BANK == 1)
                          M         bsf     STATUS, RP1
                          M       endif
                          M       if (PREV_BANK == 2)
                          M         bsf     STATUS, RP0
                          M       endif
                          M PREV_BANK = 3
                          M     endif
                          M     if (low (000h) == 0)
0088   019B               M         clrf    EEADR
                          M     else
                          M         movlw   low (000h)
                          M         movwf   EEADR
                          M     endif
                      00215         READ?B  _mem
                          M         L?CALL  READ
                          M         RST?RP
                          M     if ((PREV_BANK & 1) != 0)
0089   1283               M         bcf     STATUS, RP0
                          M     endif
                          M     if ((PREV_BANK & 2) != 0)
                          M         bcf     STATUS, RP1
                          M     endif
  00000000                M PREV_BANK = 0
                          M 
                          M     ifdef USE_LINKER
                          M       if (CODE_SIZE > 2)
                          M         pagesel READ
                          M       endif
                          M     else
                          M       if ((READ)  < 1)
                          M         if (CODE_SIZE > 2)
                          M           if (((READ)  & 800h) == 0)
                          M         bcf     PCLATH, 3
                          M         else
                          M         bsf     PCLATH, 3
                          M         endif
                          M         endif
                          M         if (CODE_SIZE > 4)
                          M           if (((READ)  & 1000h) == 0)
                          M         bcf     PCLATH, 4
                          M           else
                          M         bsf     PCLATH, 4
                          M           endif
                          M         endif
                          M       else
                          M         if ((READ)  > $)
                          M           if (CODE_SIZE > 2)
                          M             if (((READ)  & 800h) == 0)
MPASM 5.62     DISPOSITIVO BAR PIC12F629.ASM   10-4-2016  16:08:13         PAGE 61


LOC  OBJECT CODE     LINE SOURCE TEXT
  VALUE

                          M         bcf     PCLATH, 3
                          M             else
                          M         bsf     PCLATH, 3
                          M             endif
                          M           endif
                          M           if (CODE_SIZE > 4)
                          M             if (((READ)  & 1000h) == 0)
                          M         bcf     PCLATH, 4
                          M             else
                          M         bsf     PCLATH, 4
                          M             endif
                          M           endif
                          M         else
                          M           if (CODE_SIZE > 2)
                          M             if (((READ)  & 1800h) == 0)
                          M         clrf    PCLATH
                          M             else
                          M               if (((READ)  & 800h) == 0)
                          M         bcf     PCLATH, 3
                          M               else
                          M         bsf     PCLATH, 3
                          M               endif
                          M               if (CODE_SIZE > 4)
                          M                 if (((READ)  & 1000h) == 0)
                          M         bcf     PCLATH, 4
                          M                 else
                          M         bsf     PCLATH, 4
                          M                 endif   
                          M               endif
                          M             endif
                          M           endif
                          M         endif
                          M       endif
                          M     endif
                          M 
008A   2001               M         call    READ
                          M         MOVE?AB _mem
                          M         CHK?RP  _mem
                          M     if (((_mem)  & 180h) == 0)
                          M       if (PREV_BANK == 1)
                          M         bcf     STATUS, RP0
                          M       endif
                          M       if (PREV_BANK == 2)
                          M         bcf     STATUS, RP1
                          M       endif
                          M       if (PREV_BANK == 3)
                          M         bcf     STATUS, RP0
                          M         bcf     STATUS, RP1
                          M       endif
  00000000                M PREV_BANK = 0
                          M     endif
                          M 
                          M     if (((_mem)  & 180h) == 80h)
MPASM 5.62     DISPOSITIVO BAR PIC12F629.ASM   10-4-2016  16:08:13         PAGE 62


LOC  OBJECT CODE     LINE SOURCE TEXT
  VALUE

                          M       if (PREV_BANK == 0)
                          M         bsf     STATUS, RP0
                          M       endif
                          M       if (PREV_BANK == 2)
                          M         bsf     STATUS, RP0
                          M         bcf     STATUS, RP1
                          M       endif
                          M       if (PREV_BANK == 3)
                          M         bcf     STATUS, RP1
                          M       endif
                          M PREV_BANK = 1
                          M     endif
                          M 
                          M     if (((_mem)  & 180h) == 100h)
                          M       if (PREV_BANK == 0)
                          M         bsf     STATUS, RP1
                          M       endif
                          M       if (PREV_BANK == 1)
                          M         bcf     STATUS, RP0
                          M         bsf     STATUS, RP1
                          M       endif
                          M       if (PREV_BANK == 3)
                          M         bcf     STATUS, RP0
                          M       endif
                          M PREV_BANK = 2
                          M     endif
                          M 
                          M     if (((_mem)  & 180h) == 180h)
                          M       if (PREV_BANK == 0)
                          M         bsf     STATUS, RP0
                          M         bsf     STATUS, RP1
                          M       endif
                          M       if (PREV_BANK == 1)
                          M         bsf     STATUS, RP1
                          M       endif
                          M       if (PREV_BANK == 2)
                          M         bsf     STATUS, RP0
                          M       endif
                          M PREV_BANK = 3
                          M     endif
008B   00B9               M         movwf   _mem
                      00216 
                      00217 ; C:\USERS\CALZONTZIN\DESKTOP\DISPOSITIVO STAR3 PIC12F629\DISPOSITIVO BAR PIC12F629.PBP 00053       i=1
                      00218         MOVE?CB 001h, _i
                          M         CHK?RP  _i
                          M     if (((_i)    & 180h) == 0)
                          M       if (PREV_BANK == 1)
                          M         bcf     STATUS, RP0
                          M       endif
                          M       if (PREV_BANK == 2)
                          M         bcf     STATUS, RP1
                          M       endif
                          M       if (PREV_BANK == 3)
MPASM 5.62     DISPOSITIVO BAR PIC12F629.ASM   10-4-2016  16:08:13         PAGE 63


LOC  OBJECT CODE     LINE SOURCE TEXT
  VALUE

                          M         bcf     STATUS, RP0
                          M         bcf     STATUS, RP1
                          M       endif
  00000000                M PREV_BANK = 0
                          M     endif
                          M 
                          M     if (((_i)    & 180h) == 80h)
                          M       if (PREV_BANK == 0)
                          M         bsf     STATUS, RP0
                          M       endif
                          M       if (PREV_BANK == 2)
                          M         bsf     STATUS, RP0
                          M         bcf     STATUS, RP1
                          M       endif
                          M       if (PREV_BANK == 3)
                          M         bcf     STATUS, RP1
                          M       endif
                          M PREV_BANK = 1
                          M     endif
                          M 
                          M     if (((_i)    & 180h) == 100h)
                          M       if (PREV_BANK == 0)
                          M         bsf     STATUS, RP1
                          M       endif
                          M       if (PREV_BANK == 1)
                          M         bcf     STATUS, RP0
                          M         bsf     STATUS, RP1
                          M       endif
                          M       if (PREV_BANK == 3)
                          M         bcf     STATUS, RP0
                          M       endif
                          M PREV_BANK = 2
                          M     endif
                          M 
                          M     if (((_i)    & 180h) == 180h)
                          M       if (PREV_BANK == 0)
                          M         bsf     STATUS, RP0
                          M         bsf     STATUS, RP1
                          M       endif
                          M       if (PREV_BANK == 1)
                          M         bsf     STATUS, RP1
                          M       endif
                          M       if (PREV_BANK == 2)
                          M         bsf     STATUS, RP0
                          M       endif
                          M PREV_BANK = 3
                          M     endif
                          M     if (low (001h) == 0)
                          M         clrf    _i
                          M     else
008C   3001               M         movlw   low (001h)
008D   00B8               M         movwf   _i
                          M     endif
MPASM 5.62     DISPOSITIVO BAR PIC12F629.ASM   10-4-2016  16:08:13         PAGE 64


LOC  OBJECT CODE     LINE SOURCE TEXT
  VALUE

                      00219 
                      00220 ; C:\USERS\CALZONTZIN\DESKTOP\DISPOSITIVO STAR3 PIC12F629\DISPOSITIVO BAR PIC12F629.PBP 00054       return
                      00221         RETURN? 
                          M     ifdef DEBUG_STACK
                          M         CHK?RP  DEBUG_STACK
                          M         decf    DEBUG_STACK, F
                          M     endif
                          M         RST?RP
                          M     if ((PREV_BANK & 1) != 0)
                          M         bcf     STATUS, RP0
                          M     endif
                          M     if ((PREV_BANK & 2) != 0)
                          M         bcf     STATUS, RP1
                          M     endif
  00000000                M PREV_BANK = 0
008E   0008               M         return
                      00222 
                      00223 ; C:\USERS\CALZONTZIN\DESKTOP\DISPOSITIVO STAR3 PIC12F629\DISPOSITIVO BAR PIC12F629.PBP 00056    end
                      00224         END?    
  0000                    M     local loop
008F   0063               M loop    sleep
                          M         L?GOTO  loop
                          M     ifdef USE_LINKER
                          M         CLRWDT?
                          M     else
                          M       if ($ == (_146loop))
                          M         CLRWDT?
                          M       endif
                          M     endif
                          M 
                          M         RST?RP
                          M     if ((PREV_BANK & 1) != 0)
                          M         bcf     STATUS, RP0
                          M     endif
                          M     if ((PREV_BANK & 2) != 0)
                          M         bcf     STATUS, RP1
                          M     endif
  00000000                M PREV_BANK = 0
                          M 
                          M     ifdef USE_LINKER
                          M       if (CODE_SIZE > 2)
                          M         pagesel _146loop
                          M       endif
                          M     else
                          M       if ((_146loop) < 1)
                          M         if (CODE_SIZE > 2)
                          M           if (((_146loop) & 800h) == 0)
                          M         bcf     PCLATH, 3
                          M           else
                          M         bsf     PCLATH, 3
                          M           endif
                          M         endif
                          M         if (CODE_SIZE > 4)
MPASM 5.62     DISPOSITIVO BAR PIC12F629.ASM   10-4-2016  16:08:13         PAGE 65


LOC  OBJECT CODE     LINE SOURCE TEXT
  VALUE

                          M           if (((_146loop) & 1000h) == 0)
                          M         bcf     PCLATH, 4
                          M           else
                          M         bsf     PCLATH, 4
                          M           endif
                          M         endif
                          M       else
                          M         if ((_146loop) > $)
                          M           if (CODE_SIZE > 2)
                          M             if (((_146loop) & 800h) == 0)
                          M         bcf     PCLATH, 3
                          M             else
                          M         bsf     PCLATH, 3
                          M             endif
                          M           endif
                          M           if (CODE_SIZE > 4)
                          M             if (((_146loop) & 1000h) == 0)
                          M         bcf     PCLATH, 4
                          M             else
                          M         bsf     PCLATH, 4
                          M             endif
                          M           endif
                          M         else
                          M           if (CODE_SIZE > 2)
                          M             if (((_146loop) & 1800h) == 0)
                          M         clrf    PCLATH
                          M             else
                          M               if (((_146loop) & 800h) == 0)
                          M         bcf     PCLATH, 3
                          M               else
                          M         bsf     PCLATH, 3
                          M               endif
                          M               if (CODE_SIZE > 4)
                          M                 if (((_146loop) & 1000h) == 0)
                          M         bcf     PCLATH, 4
                          M                 else
                          M         bsf     PCLATH, 4
                          M                 endif
                          M               endif
                          M             endif
                          M           endif
                          M         endif
                          M       endif
                          M     endif
                          M 
0090   288F               M         goto    _146loop
                      00225 
                      00226         END
MPASM 5.62     DISPOSITIVO BAR PIC12F629.ASM   10-4-2016  16:08:13         PAGE 66


SYMBOL TABLE
  LABEL                             VALUE 

ADC_BITS                          00000008
ADC_CLOCK                         00000003
ADC_SAMPLEUS                      00000032
ADIE                              00000006
ADIF                              00000006
ASM?                              
BANK0_END                         0000005F
BANK0_START                       00000020
BIT?FLIP                          
BIT?FW                            
BIT?GOTO                          
BIT?R1                            
BIT?R2                            
BIT?W                             
BUTTON_PAUSE                      0000000A
C                                 00000000
CAL0                              00000002
CAL1                              00000003
CAL2                              00000004
CAL3                              00000005
CAL4                              00000006
CAL5                              00000007
CCP1_BIT                          00000003
CCP1_REG                          00000006
CHK?RP                            
CINV                              00000004
CIS                               00000003
CLRWDT?                           
CLRWDT?NOP                        
CM0                               00000000
CM1                               00000001
CM2                               00000002
CMCON                             00000019
CMIE                              00000003
CMIF                              00000003
CMPNE?BCL                         
CMPNE?TCL                         
CODE_SIZE                         00000002
COUT                              00000006
DC                                00000001
DEBUGIN_BIT                       00000000
DEBUGIN_MODE                      00000001
DEBUGIN_REG                       00000005
DEBUG_BAUD                        00000960
DEBUG_BIT                         00000000
DEBUG_DELAY                       00000193
DEBUG_MODE                        00000001
DEBUG_REG                         00000005
DEVICE                            0000003C
DONE                              00000037
DONERET                           0000003B
DONE_USED                         00000001
EEADR                             0000009B
MPASM 5.62     DISPOSITIVO BAR PIC12F629.ASM   10-4-2016  16:08:13         PAGE 67


SYMBOL TABLE
  LABEL                             VALUE 

EECON1                            0000009C
EECON2                            0000009D
EEDAT                             0000009A
EEDATA                            0000009A
EEIE                              00000007
EEIF                              00000007
EEPROM_END                        0000217F
EEPROM_START                      00002100
END?                              
ENDASM?                           
F                                 00000001
FLAGS                             00000032
FSR                               00000004
GIE                               00000007
GOP                               00000033
GOSUB?L                           
GOTO?L                            
GP0                               00000000
GP1                               00000001
GP2                               00000002
GP3                               00000003
GP4                               00000004
GP5                               00000005
GPIE                              00000003
GPIF                              00000000
GPIO                              00000005
GPIO0                             00000000
GPIO1                             00000001
GPIO2                             00000002
GPIO3                             00000003
GPIO4                             00000004
GPIO5                             00000005
HIGH?T                            
HSER_BAUD                         00000960
HSER_BITS                         00000008
HSER_RCSTA                        00000090
HSER_SPBRG                        00000019
HSER_TXSTA                        00000020
I2CFIRSTFLAG                      FLAGS, 2
I2CREADFLAG                       FLAGS, 3
I2CSTOPFLAG                       FLAGS, 5
I2CSTOPSTRFLAG                    FLAGS, 6
I2CWRITEFLAG                      FLAGS, 4
INDF                              00000000
INIT                              0000003C
INTCON                            0000000B
INTE                              00000004
INTEDG                            00000006
INTF                              00000001
IOC                               00000096
IOC0                              00000000
IOC1                              00000001
IOC2                              00000002
MPASM 5.62     DISPOSITIVO BAR PIC12F629.ASM   10-4-2016  16:08:13         PAGE 68


SYMBOL TABLE
  LABEL                             VALUE 

IOC3                              00000003
IOC4                              00000004
IOC5                              00000005
IOCB                              00000096
IOCB0                             00000000
IOCB1                             00000001
IOCB2                             00000002
IOCB3                             00000003
IOCB4                             00000004
IOCB5                             00000005
IRP                               00000007
L00001                            0000004E
L00003                            00000052
L00005                            00000056
L00007                            00000072
L?CALL                            
L?GOTO                            
LABEL?L                           
LCDCDFLAG                         FLAGS, 0
LCDINITFLAG                       FLAGS, 1
LCD_BITS                          00000004
LCD_COMMANDUS                     000007D0
LCD_DATAUS                        00000032
LCD_DBIT                          00000000
LCD_DREG                          00000005
LCD_EBIT                          00000003
LCD_EREG                          00000006
LCD_LINES                         00000002
LCD_RSBIT                         00000004
LCD_RSREG                         00000005
LCD_RWBIT                         00000004
LCD_RWREG                         00000005
LOW?T                             
MOVE?AB                           
MOVE?AT                           
MOVE?AW                           
MOVE?AWW                          
MOVE?BA                           
MOVE?BB                           
MOVE?BT                           
MOVE?BW                           
MOVE?CA                           
MOVE?CB                           
MOVE?CT                           
MOVE?CW                           
MOVE?TA                           
MOVE?TB                           
MOVE?TT                           
MOVE?TW                           
MOVE?WA                           
MOVE?WB                           
MOVE?WT                           
MOVE?WW                           
MPASM 5.62     DISPOSITIVO BAR PIC12F629.ASM   10-4-2016  16:08:13         PAGE 69


SYMBOL TABLE
  LABEL                             VALUE 

MOVE?WWA                          
MPASMX_USED                       00000001
NOT_BOD                           00000000
NOT_BOR                           00000000
NOT_GPPU                          00000007
NOT_PD                            00000003
NOT_POR                           00000001
NOT_T1SYNC                        00000002
NOT_TO                            00000004
OPTION_REG                        00000081
OSC                               4
OSCCAL                            00000090
OSC_VALID                         00000001
PAUSE                             00000015
PAUSE?C                           
PAUSEL                            00000016
PAUSEUS                           00000022
PAUSEUSL                          00000023
PAUSEUS_USED                      00000001
PAUSE_DELAY                       000003DF
PAUSE_USED                        00000001
PBP_HARDWAREDEF                   
PBP_PATH                          C:\PROGRAM FILES (X86)\PBP3\
PCL                               00000002
PCLATH                            0000000A
PCON                              0000008E
PEIE                              00000006
PIE1                              0000008C
PIR1                              0000000C
PORTA                             00000005
PORTB                             00000006
PREV_BANK                         00000000
PS0                               00000000
PS1                               00000001
PS2                               00000002
PSA                               00000003
R0                                00000020
R1                                00000022
R2                                00000024
R3                                00000026
R4                                00000028
R5                                0000002A
R6                                0000002C
R7                                0000002E
R8                                00000030
RAM_BANKS                         00000001
RAM_END                           0000005F
RAM_START                         00000020
RD                                00000000
READ                              00000001
READ?B                            
READADDRESS?C                     
READINC                           00000004
MPASM 5.62     DISPOSITIVO BAR PIC12F629.ASM   10-4-2016  16:08:13         PAGE 70


SYMBOL TABLE
  LABEL                             VALUE 

READ_USED                         00000001
RESET_ORG                         00000000
RETURN?                           
RM1                               00000034
RM2                               00000035
RP0                               00000005
RP1                               00000006
RR1                               00000036
RR2                               00000037
RST?RP                            
STATUS                            00000003
T0CS                              00000005
T0IE                              00000005
T0IF                              00000002
T0SE                              00000004
T1CKPS0                           00000004
T1CKPS1                           00000005
T1CON                             00000010
T1IE                              00000000
T1IF                              00000000
T1OSCEN                           00000003
TMR0                              00000001
TMR0IE                            00000005
TMR0IF                            00000002
TMR1                              0000000E
TMR1CS                            00000001
TMR1GE                            00000006
TMR1H                             0000000F
TMR1IE                            00000000
TMR1IF                            00000000
TMR1L                             0000000E
TMR1ON                            00000000
TRISIO                            00000085
TRISIO0                           00000000
TRISIO1                           00000001
TRISIO2                           00000002
TRISIO3                           00000003
TRISIO4                           00000004
TRISIO5                           00000005
VR0                               00000000
VR1                               00000001
VR2                               00000002
VR3                               00000003
VRCON                             00000099
VREN                              00000007
VRR                               00000005
W                                 00000000
WPU                               00000095
WPU0                              00000000
WPU1                              00000001
WPU2                              00000002
WPU4                              00000004
WPU5                              00000005
MPASM 5.62     DISPOSITIVO BAR PIC12F629.ASM   10-4-2016  16:08:13         PAGE 71


SYMBOL TABLE
  LABEL                             VALUE 

WR                                00000001
WREN                              00000002
WRERR                             00000003
WRITE                             00000008
WRITE?C                           
WRITEADDRESS?C                    
WRITEZ                            00000007
WRITE_USED                        00000001
Z                                 00000002
_BODEN_OFF                        00003FBF
_BODEN_ON                         00003FFF
_BOREN_OFF                        00003FBF
_BOREN_ON                         00003FFF
_CONFIG                           00002007
_CPD_OFF                          00003FFF
_CPD_ON                           00003EFF
_CP_OFF                           00003FFF
_CP_ON                            00003F7F
_DEVID1                           00002006
_EC_OSC                           00003FFB
_EXTRC_OSC_CLKOUT                 00003FFF
_EXTRC_OSC_NOCLKOUT               00003FFE
_FOSC_EC                          00003FFB
_FOSC_EXTRCCLK                    00003FFF
_FOSC_EXTRCIO                     00003FFE
_FOSC_HS                          00003FFA
_FOSC_INTRCCLK                    00003FFD
_FOSC_INTRCIO                     00003FFC
_FOSC_LP                          00003FF8
_FOSC_XT                          00003FF9
_GPIO??0                          GPIO, 000h
_GPIO??2                          GPIO, 002h
_GPIO??4                          GPIO, 004h
_GPIO??5                          GPIO, 005h
_HS_OSC                           00003FFA
_IDLOC0                           00002000
_IDLOC1                           00002001
_IDLOC2                           00002002
_IDLOC3                           00002003
_INTRC_OSC_CLKOUT                 00003FFD
_INTRC_OSC_NOCLKOUT               00003FFC
_LP_OSC                           00003FF8
_MCLRE_OFF                        00003FDF
_MCLRE_ON                         00003FFF
_PORTH                            00000005
_PORTL                            00000005
_PWRTE_OFF                        00003FFF
_PWRTE_ON                         00003FEF
_TRISH                            00000085
_TRISL                            00000085
_WDTE_OFF                         00003FF7
_WDTE_ON                          00003FFF
_WDT_OFF                          00003FF7
MPASM 5.62     DISPOSITIVO BAR PIC12F629.ASM   10-4-2016  16:08:13         PAGE 72


SYMBOL TABLE
  LABEL                             VALUE 

_WDT_ON                           00003FFF
_XT_OSC                           00003FF9
__12F629                          00000001
_barbtn                           _GPIO??4
_barled                           _GPIO??2
_btnbar                           0000006C
_btnstart                         00000057
_i                                00000038
_inicio                           00000048
_leemem                           00000087
_mem                              00000039
_startbtn                         _GPIO??5
_startled                         _GPIO??0
main                              0000003C
pauseloop                         00000017
pauseusdone                       00000036
pauseush                          0000002C
pauseusloop                       00000029
writeloop                         00000010


MEMORY USAGE MAP ('X' = Used,  '-' = Unused)

0000 : XXXXXXXXXXXXXXXX XXXXXXXXXXXXXXXX XXXXXXXXXXXXXXXX XXXXXXXXXXXXXXXX
0040 : XXXXXXXXXXXXXXXX XXXXXXXXXXXXXXXX XXXXXXXXXXXXXXXX XXXXXXXXXXXXXXXX
0080 : XXXXXXXXXXXXXXXX X--------------- ---------------- ----------------
2000 : -------X-------- ---------------- ---------------- ----------------

All other memory blocks unused.

Program Memory Words Used:   145
Program Memory Words Free:   879


Errors   :     0
Warnings :     1 reported,     0 suppressed
Messages :     0 reported,    21 suppressed

